(lp0
I144
aI116
aI46
aI114
aI12
aI177
aI302
aI254
aI85
aI756
aI26
aI6
aI190
aI62
aI101
aI32
aI43
aI37
aI28
aI109
aI114
aI169
aI112
aI43
aI96
aI185
aI25
aI65
aI101
aI122
aI165
aI104
aI78
aI97
aI191
aI114
aI12
aI140
aI16
aI146
aI51
aI122
aI52
aI16
aI101
aI131
aI166
aI100
aI62
aI40
aI18
aI38
aI48
aI111
aI313
aI152
aI90
aI43
aI77
aI75
aI96
aI167
aI30
aI56
aI32
aI62
aI12
aI64
aI70
aI26
aI93
aI133
aI51
aI159
aI77
aI53
aI145
aI78
aI102
aI126
aI73
aI39
aI71
aI137
aI42
aI53
aI149
aI42
aI96
aI31
aI55
aI14
aI76
aI234
aI416
aI155
aI67
aI145
aI169
aI141
aI41
aI161
aI56
aI149
aI49
aI30
aI127
aI36
aI6
aI51
aI128
aI122
aI123
aI20
aI150
aI219
aI55
aI82
aI346
aI84
aI36
aI56
aI98
aI45
aI45
aI110
aI119
aI55
aI168
aI167
aI20
aI68
aI30
aI107
aI42
aI49
aI171
aI16
aI8
aI165
aI61
aI66
aI123
aI39
aI296
aI39
aI35
aI308
aI94
aI37
aI161
aI53
aI30
aI77
aI64
aI131
aI135
aI228
aI43
aI49
aI26
aI115
aI80
aI210
aI28
aI78
aI68
aI39
aI52
aI74
aI121
aI86
aI27
aI193
aI38
aI99
aI205
aI311
aI130
aI44
aI32
aI62
aI58
aI103
aI150
aI195
aI44
aI15
aI326
aI95
aI146
aI96
aI57
aI125
aI50
aI274
aI140
aI123
aI59
aI98
aI22
aI149
aI45
aI170
aI49
aI376
aI189
aI45
aI47
aI6
aI98
aI132
aI87
aI507
aI22
aI13
aI75
aI116
aI24
aI110
aI161
aI16
aI58
aI22
aI55
aI31
aI102
aI6
aI31
aI52
aI6
aI65
aI52
aI72
aI41
aI86
aI140
aI68
aI48
aI204
aI42
aI18
aI21
aI182
aI149
aI98
aI135
aI141
aI202
aI38
aI69
aI129
aI12
aI92
aI105
aI6
aI104
aI22
aI158
aI169
aI213
aI76
aI16
aI241
aI90
aI85
aI150
aI34
aI57
aI149
aI38
aI19
aI207
aI187
aI40
aI11
aI87
aI21
aI93
aI36
aI170
aI85
aI287
aI6
aI19
aI58
aI12
aI199
aI90
aI48
aI106
aI88
aI142
aI117
aI72
aI71
aI75
aI110
aI323
aI135
aI90
aI128
aI90
aI120
aI185
aI24
aI76
aI6
aI52
aI56
aI114
aI293
aI280
aI66
aI85
aI202
aI104
aI54
aI62
aI10
aI36
aI17
aI44
aI111
aI81
aI25
aI26
aI7
aI50
aI166
aI149
aI37
aI41
aI133
aI54
aI134
aI18
aI129
aI82
aI56
aI253
aI35
aI114
aI16
aI92
aI79
aI76
aI242
aI44
aI24
aI56
aI104
aI309
aI206
aI52
aI87
aI25
aI310
aI206
aI250
aI61
aI74
aI260
aI166
aI112
aI100
aI85
aI33
aI6
aI296
aI83
aI45
aI279
aI99
aI53
aI206
aI97
aI177
aI36
aI89
aI124
aI35
aI309
aI224
aI182
aI20
aI45
aI69
aI120
aI113
aI89
aI22
aI86
aI77
aI39
aI70
aI62
aI71
aI123
aI548
aI73
aI43
aI101
aI45
aI42
aI126
aI169
aI105
aI124
aI110
aI105
aI898
aI178
aI122
aI36
aI104
aI137
aI135
aI18
aI24
aI85
aI149
aI109
aI97
aI73
aI159
aI129
aI216
aI256
aI80
aI50
aI78
aI29
aI13
aI51
aI36
aI172
aI90
aI37
aI33
aI109
aI71
aI141
aI14
aI67
aI68
aI160
aI135
aI61
aI151
aI96
aI215
aI19
aI110
aI24
aI206
aI18
aI210
aI409
aI363
aI58
aI69
aI45
aI90
aI67
aI77
aI13
aI84
aI85
aI58
aI110
aI8
aI286
aI30
aI333
aI32
aI236
aI17
aI94
aI75
aI184
aI47
aI29
aI145
aI93
aI128
aI54
aI119
aI225
aI1240
aI66
aI8
aI33
aI72
aI119
aI31
aI53
aI44
aI131
aI80
aI67
aI43
aI15
aI78
aI192
aI84
aI184
aI30
aI76
aI121
aI84
aI124
aI143
aI117
aI350
aI144
aI6
aI132
aI248
aI202
aI27
aI12
aI91
aI205
aI17
aI102
aI51
aI50
aI119
aI299
aI27
aI44
aI39
aI148
aI131
aI54
aI80
aI39
aI17
aI30
aI127
aI121
aI161
aI94
aI114
aI239
aI111
aI31
aI40
aI157
aI55
aI159
aI31
aI46
aI31
aI186
aI101
aI52
aI112
aI93
aI33
aI90
aI27
aI15
aI17
aI192
aI60
aI23
aI165
aI53
aI31
aI96
aI112
aI119
aI9
aI185
aI331
aI25
aI21
aI36
aI160
aI107
aI113
aI91
aI232
aI32
aI280
aI178
aI53
aI68
aI84
aI26
aI391
aI208
aI94
aI46
aI94
aI54
aI65
aI38
aI31
aI193
aI82
aI27
aI410
aI182
aI68
aI148
aI205
aI20
aI77
aI114
aI50
aI103
aI24
aI227
aI33
aI78
aI55
aI63
aI129
aI68
aI96
aI247
aI110
aI259
aI286
aI16
aI55
aI73
aI58
aI14
aI111
aI144
aI138
aI68
aI109
aI149
aI20
aI122
aI28
aI67
aI82
aI109
aI60
aI269
aI201
aI199
aI215
aI29
aI212
aI298
aI79
aI94
aI21
aI10
aI57
aI63
aI158
aI296
aI142
aI144
aI167
aI17
aI53
aI15
aI131
aI164
aI184
aI32
aI170
aI217
aI135
aI63
aI31
aI13
aI35
aI21
aI71
aI202
aI47
aI44
aI240
aI88
aI45
aI95
aI19
aI99
aI102
aI139
aI181
aI23
aI175
aI53
aI67
aI62
aI97
aI177
aI44
aI135
aI33
aI29
aI148
aI100
aI117
aI119
aI143
aI116
aI25
aI132
aI23
aI113
aI110
aI18
aI98
aI64
aI225
aI91
aI66
aI86
aI41
aI7
aI151
aI244
aI82
aI46
aI79
aI75
aI122
aI145
aI46
aI9
aI102
aI60
aI273
aI30
aI85
aI31
aI107
aI35
aI128
aI106
aI56
aI22
aI110
aI39
aI45
aI22
aI60
aI194
aI115
aI54
aI13
aI80
aI49
aI31
aI89
aI51
aI12
aI130
aI144
aI241
aI100
aI169
aI111
aI85
aI25
aI226
aI139
aI21
aI126
aI8
aI155
aI62
aI31
aI8
aI56
aI41
aI52
aI50
aI20
aI238
aI54
aI81
aI10
aI84
aI26
aI208
aI47
aI26
aI11
aI121
aI146
aI143
aI57
aI144
aI100
aI51
aI55
aI241
aI772
aI187
aI94
aI96
aI537
aI20
aI437
aI199
aI64
aI105
aI87
aI47
aI35
aI316
aI107
aI115
aI122
aI230
aI55
aI85
aI178
aI43
aI67
aI54
aI135
aI119
aI101
aI57
aI19
aI194
aI38
aI57
aI143
aI84
aI114
aI229
aI104
aI67
aI243
aI254
aI181
aI10
aI118
aI49
aI73
aI129
aI76
aI227
aI66
aI103
aI42
aI27
aI56
aI86
aI30
aI40
aI38
aI94
aI79
aI95
aI76
aI85
aI68
aI58
aI27
aI17
aI196
aI46
aI110
aI88
aI13
aI54
aI174
aI203
aI75
aI241
aI35
aI122
aI163
aI74
aI152
aI23
aI208
aI47
aI142
aI206
aI21
aI15
aI83
aI52
aI56
aI59
aI49
aI76
aI62
aI152
aI186
aI169
aI209
aI53
aI13
aI82
aI129
aI105
aI236
aI33
aI100
aI38
aI36
aI141
aI84
aI121
aI152
aI274
aI251
aI123
aI97
aI82
aI207
aI8
aI96
aI43
aI56
aI52
aI33
aI26
aI34
aI116
aI58
aI159
aI182
aI80
aI7
aI27
aI114
aI23
aI36
aI100
aI62
aI152
aI79
aI110
aI75
aI26
aI36
aI26
aI156
aI335
aI187
aI51
aI129
aI117
aI328
aI47
aI112
aI314
aI31
aI78
aI109
aI73
aI156
aI31
aI40
aI136
aI100
aI21
aI103
aI21
aI138
aI22
aI51
aI12
aI48
aI13
aI148
aI82
aI32
aI160
aI74
aI81
aI87
aI92
aI72
aI130
aI210
aI275
aI82
aI83
aI47
aI113
aI124
aI81
aI100
aI148
aI59
aI10
aI179
aI310
aI90
aI6
aI60
aI10
aI242
aI117
aI47
aI110
aI75
aI6
aI121
aI163
aI116
aI674
aI76
aI98
aI39
aI28
aI42
aI75
aI100
aI159
aI99
aI103
aI185
aI48
aI57
aI153
aI167
aI63
aI41
aI274
aI190
aI263
aI42
aI78
aI146
aI57
aI76
aI18
aI101
aI225
aI105
aI13
aI200
aI72
aI100
aI75
aI42
aI198
aI229
aI73
aI161
aI106
aI107
aI71
aI121
aI56
aI374
aI89
aI160
aI20
aI177
aI14
aI106
aI6
aI100
aI71
aI132
aI35
aI123
aI147
aI63
aI10
aI148
aI77
aI219
aI95
aI30
aI45
aI76
aI28
aI167
aI117
aI239
aI140
aI166
aI95
aI210
aI102
aI172
aI27
aI32
aI150
aI141
aI117
aI95
aI32
aI18
aI76
aI32
aI17
aI42
aI24
aI128
aI87
aI47
aI120
aI299
aI7
aI19
aI35
aI57
aI40
aI12
aI43
aI94
aI27
aI275
aI79
aI135
aI13
aI105
aI35
aI39
aI74
aI158
aI63
aI204
aI9
aI28
aI46
aI33
aI157
aI26
aI149
aI198
aI12
aI58
aI120
aI202
aI73
aI11
aI33
aI41
aI121
aI77
aI72
aI142
aI137
aI103
aI69
aI28
aI105
aI41
aI108
aI105
aI81
aI121
aI84
aI154
aI72
aI116
aI33
aI283
aI40
aI10
aI118
aI18
aI49
aI69
aI139
aI224
aI18
aI163
aI16
aI143
aI23
aI184
aI2144
aI205
aI54
aI129
aI243
aI13
aI103
aI140
aI148
aI94
aI10
aI273
aI99
aI30
aI123
aI36
aI55
aI102
aI67
aI115
aI58
aI167
aI127
aI190
aI179
aI171
aI87
aI54
aI101
aI279
aI77
aI130
aI65
aI94
aI123
aI120
aI12
aI99
aI246
aI495
aI106
aI18
aI15
aI81
aI57
aI59
aI24
aI53
aI118
aI159
aI83
aI187
aI161
aI143
aI103
aI26
aI39
aI140
aI82
aI142
aI55
aI271
aI168
aI66
aI36
aI49
aI68
aI183
aI34
aI41
aI67
aI113
aI71
aI239
aI51
aI35
aI92
aI25
aI114
aI94
aI108
aI84
aI128
aI32
aI12
aI106
aI72
aI144
aI93
aI123
aI256
aI29
aI111
aI124
aI111
aI187
aI23
aI118
aI203
aI10
aI26
aI317
aI91
aI303
aI288
aI204
aI82
aI118
aI175
aI63
aI827
aI31
aI823
aI51
aI86
aI71
aI16
aI57
aI60
aI113
aI115
aI80
aI87
aI48
aI215
aI106
aI59
aI6
aI52
aI221
aI89
aI832
aI62
aI143
aI138
aI52
aI50
aI101
aI45
aI34
aI92
aI52
aI52
aI83
aI200
aI126
aI339
aI69
aI28
aI100
aI219
aI36
aI90
aI32
aI103
aI210
aI21
aI76
aI134
aI157
aI125
aI62
aI249
aI51
aI140
aI141
aI108
aI42
aI46
aI130
aI68
aI69
aI65
aI64
aI68
aI171
aI22
aI98
aI25
aI130
aI124
aI295
aI125
aI42
aI49
aI32
aI73
aI394
aI107
aI202
aI12
aI115
aI65
aI95
aI398
aI120
aI177
aI29
aI90
aI191
aI125
aI80
aI13
aI49
aI44
aI20
aI106
aI7
aI69
aI40
aI122
aI53
aI158
aI16
aI190
aI56
aI199
aI32
aI121
aI283
aI76
aI324
aI132
aI105
aI166
aI108
aI8
aI54
aI142
aI59
aI110
aI190
aI99
aI120
aI242
aI119
aI58
aI40
aI79
aI27
aI106
aI54
aI116
aI64
aI37
aI47
aI25
aI143
aI68
aI36
aI112
aI83
aI15
aI34
aI33
aI30
aI180
aI46
aI126
aI12
aI151
aI34
aI180
aI217
aI18
aI158
aI149
aI130
aI84
aI18
aI59
aI92
aI163
aI76
aI6
aI53
aI34
aI102
aI118
aI33
aI70
aI107
aI44
aI78
aI147
aI26
aI57
aI125
aI455
aI73
aI110
aI144
aI41
aI24
aI116
aI19
aI193
aI22
aI292
aI116
aI316
aI99
aI95
aI156
aI64
aI326
aI34
aI85
aI59
aI111
aI232
aI185
aI68
aI68
aI143
aI125
aI101
aI142
aI76
aI425
aI29
aI155
aI43
aI76
aI114
aI46
aI71
aI177
aI396
aI105
aI125
aI91
aI94
aI163
aI103
aI162
aI84
aI71
aI10
aI88
aI41
aI61
aI93
aI100
aI146
aI221
aI62
aI305
aI180
aI96
aI86
aI306
aI22
aI94
aI60
aI160
aI16
aI48
aI39
aI110
aI34
aI327
aI23
aI61
aI100
aI14
aI236
aI130
aI25
aI148
aI126
aI158
aI37
aI41
aI72
aI32
aI97
aI116
aI503
aI62
aI84
aI22
aI179
aI45
aI54
aI105
aI28
aI134
aI153
aI163
aI26
aI129
aI27
aI6
aI80
aI21
aI206
aI79
aI80
aI134
aI155
aI97
aI53
aI12
aI59
aI199
aI246
aI177
aI144
aI186
aI228
aI69
aI175
aI37
aI16
aI26
aI50
aI78
aI156
aI193
aI73
aI46
aI138
aI143
aI124
aI123
aI74
aI18
aI73
aI106
aI241
aI54
aI169
aI71
aI143
aI10
aI202
aI135
aI13
aI44
aI155
aI248
aI48
aI20
aI104
aI146
aI157
aI125
aI199
aI346
aI6
aI121
aI111
aI18
aI241
aI10
aI330
aI32
aI122
aI162
aI36
aI46
aI82
aI33
aI41
aI10
aI82
aI111
aI13
aI173
aI29
aI56
aI50
aI60
aI65
aI86
aI52
aI49
aI80
aI40
aI92
aI16
aI260
aI109
aI52
aI29
aI106
aI30
aI39
aI41
aI67
aI82
aI182
aI92
aI49
aI111
aI43
aI150
aI15
aI65
aI57
aI183
aI55
aI156
aI131
aI214
aI68
aI273
aI73
aI7
aI12
aI11
aI84
aI70
aI11
aI53
aI93
aI8
aI78
aI18
aI19
aI93
aI229
aI411
aI168
aI76
aI89
aI48
aI46
aI33
aI28
aI132
aI94
aI77
aI14
aI20
aI78
aI63
aI78
aI143
aI32
aI227
aI16
aI199
aI74
aI58
aI94
aI150
aI121
aI177
aI182
aI163
aI31
aI199
aI227
aI50
aI115
aI246
aI57
aI94
aI105
aI81
aI6
aI12
aI52
aI80
aI234
aI130
aI6
aI86
aI86
aI236
aI31
aI27
aI56
aI113
aI98
aI217
aI118
aI89
aI53
aI8
aI67
aI55
aI163
aI123
aI29
aI207
aI133
aI105
aI15
aI14
aI24
aI73
aI34
aI63
aI29
aI77
aI52
aI52
aI17
aI18
aI7
aI43
aI139
aI92
aI31
aI143
aI144
aI94
aI76
aI13
aI23
aI69
aI171
aI84
aI85
aI86
aI8
aI117
aI147
aI64
aI215
aI113
aI438
aI32
aI27
aI82
aI64
aI122
aI11
aI15
aI71
aI45
aI206
aI103
aI192
aI10
aI194
aI239
aI76
aI69
aI181
aI109
aI42
aI38
aI40
aI149
aI21
aI43
aI143
aI41
aI67
aI11
aI179
aI59
aI39
aI88
aI61
aI153
aI116
aI6
aI44
aI34
aI166
aI39
aI216
aI54
aI80
aI146
aI66
aI75
aI180
aI44
aI74
aI39
aI21
aI85
aI190
aI93
aI30
aI83
aI10
aI48
aI17
aI42
aI68
aI66
aI105
aI48
aI81
aI54
aI74
aI20
aI17
aI56
aI43
aI137
aI65
aI100
aI135
aI129
aI81
aI224
aI18
aI184
aI10
aI68
aI34
aI175
aI98
aI168
aI16
aI215
aI95
aI82
aI191
aI73
aI143
aI30
aI269
aI10
aI45
aI39
aI57
aI143
aI132
aI31
aI25
aI51
aI50
aI188
aI328
aI26
aI204
aI62
aI276
aI362
aI107
aI17
aI98
aI36
aI78
aI41
aI24
aI80
aI40
aI98
aI171
aI95
aI22
aI97
aI54
aI123
aI210
aI171
aI209
aI127
aI136
aI23
aI170
aI48
aI34
aI39
aI100
aI108
aI6
aI138
aI230
aI65
aI46
aI49
aI79
aI20
aI293
aI105
aI46
aI130
aI262
aI121
aI97
aI246
aI112
aI78
aI52
aI104
aI79
aI51
aI17
aI29
aI169
aI59
aI74
aI171
aI125
aI61
aI21
aI155
aI126
aI250
aI120
aI53
aI140
aI25
aI146
aI59
aI88
aI111
aI72
aI44
aI103
aI78
aI100
aI233
aI12
aI59
aI97
aI79
aI40
aI103
aI92
aI245
aI31
aI30
aI79
aI184
aI76
aI78
aI64
aI40
aI40
aI96
aI6
aI10
aI106
aI6
aI77
aI175
aI220
aI155
aI111
aI51
aI98
aI93
aI81
aI59
aI104
aI38
aI111
aI129
aI126
aI62
aI20
aI70
aI174
aI81
aI153
aI118
aI105
aI54
aI19
aI28
aI189
aI36
aI126
aI239
aI98
aI101
aI178
aI129
aI63
aI15
aI39
aI88
aI63
aI119
aI299
aI46
aI71
aI148
aI196
aI12
aI54
aI195
aI14
aI97
aI78
aI165
aI181
aI147
aI119
aI44
aI108
aI52
aI99
aI36
aI76
aI77
aI64
aI209
aI183
aI158
aI6
aI121
aI201
aI31
aI185
aI61
aI129
aI72
aI440
aI95
aI65
aI9
aI92
aI53
aI70
aI17
aI76
aI130
aI70
aI106
aI185
aI151
aI48
aI245
aI185
aI173
aI75
aI83
aI66
aI215
aI53
aI180
aI96
aI125
aI47
aI9
aI98
aI252
aI74
aI87
aI50
aI33
aI123
aI162
aI9
aI63
aI158
aI89
aI92
aI105
aI53
aI80
aI44
aI87
aI284
aI186
aI42
aI83
aI143
aI21
aI75
aI69
aI167
aI91
aI27
aI12
aI299
aI8
aI75
aI76
aI23
aI145
aI120
aI181
aI208
aI117
aI99
aI36
aI143
aI140
aI88
aI32
aI22
aI57
aI20
aI54
aI245
aI9
aI186
aI91
aI175
aI64
aI71
aI27
aI125
aI31
aI141
aI189
aI216
aI49
aI43
aI57
aI44
aI61
aI46
aI50
aI59
aI50
aI171
aI21
aI57
aI136
aI112
aI186
aI280
aI238
aI22
aI69
aI22
aI87
aI54
aI55
aI36
aI125
aI120
aI46
aI178
aI14
aI42
aI81
aI39
aI107
aI97
aI146
aI123
aI7
aI1025
aI51
aI6693
aI47
aI19
aI522
aI41
aI84
aI73
aI34
aI88
aI212
aI78
aI130
aI85
aI6
aI56
aI95
aI123
aI23
aI42
aI124
aI53
aI264
aI122
aI27
aI77
aI588
aI111
aI37
aI138
aI180
aI44
aI190
aI25
aI122
aI72
aI174
aI16
aI274
aI169
aI74
aI43
aI73
aI76
aI55
aI290
aI78
aI112
aI127
aI64
aI21
aI102
aI52
aI48
aI47
aI42
aI154
aI137
aI149
aI186
aI86
aI57
aI365
aI153
aI225
aI88
aI148
aI11
aI75
aI110
aI110
aI117
aI147
aI20
aI778
aI60
aI32
aI7
aI21
aI47
aI18
aI89
aI82
aI72
aI203
aI281
aI119
aI42
aI116
aI53
aI51
aI47
aI85
aI6
aI237
aI90
aI39
aI193
aI103
aI166
aI31
aI26
aI18
aI23
aI19
aI163
aI34
aI62
aI36
aI96
aI70
aI99
aI149
aI129
aI28
aI68
aI44
aI167
aI46
aI23
aI125
aI65
aI204
aI108
aI152
aI53
aI38
aI353
aI80
aI46
aI117
aI6
aI15
aI90
aI23
aI18
aI44
aI125
aI177
aI109
aI11
aI98
aI166
aI77
aI65
aI716
aI78
aI78
aI30
aI28
aI162
aI149
aI72
aI305
aI59
aI22
aI114
aI59
aI85
aI119
aI69
aI130
aI122
aI40
aI68
aI41
aI68
aI51
aI56
aI79
aI140
aI55
aI96
aI90
aI143
aI130
aI15
aI158
aI56
aI29
aI81
aI63
aI140
aI131
aI204
aI128
aI36
aI108
aI43
aI51
aI45
aI32
aI25
aI104
aI232
aI137
aI52
aI37
aI11
aI171
aI43
aI134
aI78
aI134
aI49
aI36
aI173
aI10
aI136
aI111
aI151
aI115
aI57
aI34
aI125
aI53
aI83
aI85
aI121
aI122
aI87
aI152
aI129
aI78
aI167
aI147
aI46
aI234
aI65
aI27
aI23
aI49
aI78
aI216
aI155
aI6
aI14
aI166
aI19
aI105
aI193
aI82
aI114
aI159
aI18
aI64
aI153
aI173
aI142
aI123
aI48
aI41
aI88
aI156
aI78
aI44
aI67
aI12
aI64
aI132
aI65
aI122
aI129
aI180
aI31
aI141
aI95
aI111
aI99
aI15
aI36
aI94
aI50
aI69
aI170
aI26
aI37
aI27
aI30
aI14
aI121
aI217
aI25
aI49
aI74
aI145
aI156
aI92
aI142
aI67
aI202
aI31
aI63
aI21
aI34
aI143
aI110
aI134
aI84
aI63
aI99
aI160
aI14
aI54
aI44
aI6
aI83
aI136
aI8
aI74
aI86
aI22
aI52
aI232
aI32
aI88
aI143
aI72
aI100
aI157
aI95
aI28
aI10
aI65
aI51
aI38
aI78
aI142
aI319
aI38
aI193
aI54
aI75
aI46
aI13
aI503
aI161
aI59
aI262
aI100
aI110
aI38
aI110
aI149
aI44
aI86
aI76
aI126
aI37
aI161
aI49
aI51
aI176
aI130
aI135
aI67
aI66
aI55
aI41
aI53
aI66
aI63
aI202
aI42
aI47
aI49
aI238
aI81
aI43
aI68
aI8
aI598
aI51
aI186
aI133
aI100
aI123
aI120
aI70
aI78
aI41
aI62
aI110
aI66
aI220
aI61
aI76
aI14
aI64
aI40
aI193
aI218
aI314
aI24
aI47
aI185
aI124
aI87
aI36
aI40
aI87
aI10
aI123
aI12
aI213
aI91
aI45
aI19
aI166
aI208
aI61
aI49
aI166
aI55
aI156
aI52
aI105
aI91
aI108
aI81
aI6
aI66
aI81
aI58
aI97
aI31
aI15
aI84
aI52
aI90
aI137
aI161
aI80
aI18
aI155
aI149
aI221
aI57
aI22
aI205
aI43
aI265
aI31
aI89
aI64
aI15
aI183
aI85
aI376
aI41
aI45
aI197
aI51
aI324
aI26
aI79
aI110
aI19
aI47
aI197
aI175
aI182
aI78
aI119
aI54
aI140
aI60
aI141
aI9
aI40
aI105
aI76
aI33
aI66
aI108
aI195
aI62
aI11
aI97
aI178
aI146
aI143
aI104
aI70
aI191
aI41
aI86
aI85
aI148
aI141
aI141
aI230
aI51
aI68
aI23
aI14
aI75
aI91
aI91
aI109
aI48
aI38
aI113
aI148
aI51
aI308
aI38
aI20
aI190
aI388
aI149
aI185
aI140
aI201
aI8
aI115
aI50
aI12
aI38
aI96
aI100
aI87
aI195
aI341
aI111
aI244
aI106
aI29
aI159
aI107
aI91
aI100
aI160
aI50
aI153
aI236
aI120
aI24
aI69
aI32
aI46
aI141
aI130
aI122
aI201
aI77
aI89
aI206
aI6
aI76
aI97
aI91
aI193
aI114
aI8
aI185
aI63
aI172
aI32
aI87
aI100
aI67
aI118
aI55
aI151
aI73
aI213
aI84
aI16
aI119
aI216
aI141
aI56
aI104
aI185
aI86
aI31
aI106
aI54
aI140
aI76
aI184
aI111
aI20
aI24
aI8
aI55
aI38
aI8
aI24
aI16
aI137
aI93
aI13
aI11
aI17
aI158
aI76
aI253
aI289
aI54
aI179
aI41
aI36
aI174
aI356
aI73
aI170
aI364
aI149
aI85
aI108
aI53
aI75
aI82
aI14
aI310
aI18
aI12
aI206
aI69
aI94
aI90
aI101
aI95
aI81
aI92
aI161
aI283
aI97
aI111
aI54
aI65
aI382
aI330
aI143
aI84
aI149
aI124
aI83
aI6
aI67
aI62
aI30
aI25
aI35
aI59
aI13
aI87
aI59
aI83
aI165
aI53
aI57
aI93
aI16
aI77
aI173
aI61
aI176
aI92
aI84
aI135
aI33
aI154
aI118
aI26
aI92
aI83
aI186
aI30
aI33
aI42
aI79
aI245
aI8
aI38
aI154
aI43
aI30
aI7
aI223
aI130
aI24
aI115
aI46
aI26
aI139
aI77
aI17
aI278
aI112
aI82
aI71
aI121
aI18
aI26
aI179
aI186
aI59
aI202
aI127
aI14
aI194
aI104
aI99
aI8
aI44
aI87
aI80
aI30
aI67
aI48
aI64
aI33
aI190
aI116
aI133
aI158
aI19
aI85
aI90
aI243
aI160
aI42
aI70
aI97
aI116
aI51
aI160
aI47
aI233
aI113
aI206
aI18
aI199
aI133
aI48
aI10
aI120
aI132
aI142
aI23
aI73
aI43
aI101
aI102
aI8
aI61
aI190
aI161
aI88
aI26
aI20
aI178
aI64
aI41
aI129
aI79
aI111
aI28
aI87
aI29
aI38
aI6
aI142
aI143
aI75
aI57
aI41
aI8
aI8
aI62
aI28
aI61
aI19
aI16
aI16
aI306
aI243
aI25
aI30
aI89
aI101
aI86
aI184
aI121
aI221
aI72
aI35
aI120
aI206
aI60
aI100
aI40
aI39
aI89
aI86
aI89
aI95
aI90
aI65
aI103
aI7
aI69
aI137
aI49
aI61
aI50
aI12
aI53
aI28
aI57
aI32
aI98
aI100
aI96
aI85
aI72
aI83
aI208
aI62
aI158
aI162
aI162
aI165
aI186
aI145
aI75
aI151
aI113
aI215
aI43
aI133
aI104
aI76
aI174
aI20
aI164
aI17
aI41
aI94
aI111
aI76
aI168
aI20
aI70
aI267
aI10
aI398
aI38
aI78
aI81
aI20
aI90
aI82
aI62
aI170
aI149
aI35
aI76
aI37
aI23
aI179
aI38
aI193
aI95
aI118
aI56
aI11
aI80
aI163
aI19
aI6
aI80
aI14
aI54
aI141
aI169
aI211
aI205
aI31
aI85
aI120
aI110
aI154
aI79
aI79
aI87
aI20
aI225
aI70
aI113
aI74
aI61
aI100
aI28
aI112
aI164
aI301
aI71
aI62
aI51
aI30
aI80
aI10
aI69
aI92
aI73
aI152
aI44
aI147
aI146
aI28
aI63
aI255
aI105
aI130
aI73
aI26
aI62
aI63
aI23
aI50
aI43
aI92
aI28
aI64
aI142
aI111
aI26
aI285
aI105
aI175
aI69
aI63
aI219
aI18
aI151
aI167
aI58
aI171
aI70
aI201
aI150
aI58
aI23
aI22
aI108
aI43
aI99
aI66
aI19
aI18
aI79
aI296
aI38
aI127
aI59
aI150
aI129
aI62
aI142
aI15
aI128
aI73
aI70
aI49
aI158
aI171
aI140
aI152
aI50
aI133
aI160
aI133
aI113
aI6
aI37
aI10
aI86
aI58
aI117
aI50
aI124
aI47
aI40
aI142
aI82
aI186
aI199
aI93
aI32
aI19
aI26
aI130
aI92
aI108
aI85
aI214
aI140
aI117
aI167
aI33
aI32
aI47
aI124
aI57
aI86
aI71
aI31
aI27
aI116
aI167
aI61
aI6
aI42
aI65
aI60
aI120
aI23
aI301
aI36
aI147
aI123
aI35
aI102
aI76
aI109
aI109
aI36
aI114
aI31
aI90
aI22
aI39
aI125
aI77
aI40
aI54
aI183
aI96
aI223
aI8
aI53
aI97
aI132
aI40
aI8
aI48
aI53
aI10
aI115
aI114
aI18
aI62
aI124
aI162
aI28
aI224
aI71
aI27
aI68
aI26
aI81
aI140
aI47
aI6
aI145
aI216
aI29
aI158
aI155
aI105
aI125
aI365
aI12
aI40
aI137
aI241
aI44
aI16
aI140
aI47
aI8
aI63
aI139
aI31
aI77
aI92
aI40
aI87
aI144
aI108
aI95
aI257
aI29
aI127
aI53
aI252
aI43
aI58
aI805
aI16
aI65
aI109
aI95
aI34
aI29
aI232
aI192
aI56
aI119
aI94
aI160
aI43
aI162
aI219
aI274
aI13
aI16
aI164
aI183
aI47
aI100
aI6
aI143
aI120
aI35
aI272
aI139
aI8
aI160
aI84
aI149
aI77
aI364
aI6
aI228
aI96
aI15
aI213
aI50
aI10
aI225
aI174
aI31
aI45
aI14
aI157
aI41
aI73
aI6
aI6
aI240
aI159
aI39
aI69
aI17
aI34
aI118
aI51
aI182
aI66
aI76
aI61
aI108
aI202
aI172
aI64
aI47
aI107
aI202
aI149
aI219
aI522
aI118
aI93
aI113
aI31
aI18
aI53
aI53
aI274
aI149
aI57
aI71
aI60
aI90
aI364
aI10
aI52
aI141
aI55
aI76
aI180
aI28
aI65
aI90
aI94
aI32
aI150
aI59
aI396
aI27
aI7
aI114
aI230
aI216
aI46
aI70
aI229
aI77
aI35
aI96
aI84
aI66
aI45
aI13
aI27
aI219
aI139
aI18
aI33
aI76
aI45
aI171
aI226
aI63
aI24
aI104
aI191
aI30
aI35
aI44
aI139
aI55
aI107
aI264
aI9
aI32
aI107
aI121
aI75
aI49
aI58
aI190
aI41
aI70
aI30
aI514
aI28
aI257
aI43
aI27
aI141
aI174
aI126
aI8
aI10
aI69
aI147
aI276
aI15
aI51
aI99
aI66
aI60
aI223
aI109
aI173
aI33
aI155
aI100
aI60
aI196
aI53
aI33
aI57
aI29
aI135
aI96
aI68
aI82
aI41
aI86
aI64
aI105
aI93
aI21
aI83
aI123
aI130
aI141
aI312
aI32
aI37
aI35
aI30
aI174
aI56
aI30
aI105
aI97
aI68
aI347
aI58
aI19
aI49
aI10
aI85
aI152
aI212
aI211
aI54
aI132
aI44
aI31
aI53
aI76
aI17
aI17
aI229
aI182
aI62
aI8
aI118
aI186
aI57
aI23
aI51
aI30
aI129
aI18
aI21
aI104
aI110
aI11
aI121
aI24
aI171
aI37
aI170
aI90
aI17
aI217
aI67
aI38
aI28
aI247
aI61
aI97
aI155
aI105
aI72
aI10
aI68
aI12
aI12
aI142
aI137
aI18
aI44
aI82
aI156
aI47
aI149
aI13
aI52
aI26
aI76
aI24
aI141
aI81
aI172
aI93
aI54
aI32
aI31
aI213
aI211
aI194
aI35
aI138
aI114
aI126
aI140
aI210
aI238
aI148
aI59
aI79
aI74
aI65
aI131
aI57
aI130
aI31
aI32
aI7
aI220
aI215
aI32
aI142
aI105
aI75
aI149
aI477
aI147
aI27
aI171
aI218
aI43
aI84
aI158
aI89
aI80
aI43
aI51
aI179
aI139
aI103
aI103
aI147
aI95
aI169
aI41
aI107
aI190
aI62
aI211
aI34
aI318
aI80
aI64
aI80
aI88
aI47
aI99
aI28
aI16
aI288
aI152
aI65
aI197
aI129
aI104
aI66
aI107
aI151
aI14
aI159
aI123
aI267
aI79
aI119
aI121
aI29
aI154
aI7
aI82
aI262
aI56
aI146
aI22
aI184
aI200
aI20
aI389
aI106
aI86
aI125
aI91
aI32
aI96
aI122
aI19
aI189
aI107
aI113
aI52
aI102
aI20
aI61
aI202
aI82
aI166
aI18
aI45
aI15
aI78
aI162
aI71
aI52
aI232
aI187
aI86
aI212
aI251
aI146
aI15
aI21
aI70
aI58
aI85
aI193
aI95
aI20
aI26
aI80
aI75
aI52
aI226
aI62
aI76
aI78
aI80
aI62
aI100
aI237
aI183
aI58
aI113
aI164
aI16
aI17
aI94
aI18
aI52
aI75
aI183
aI63
aI185
aI79
aI91
aI44
aI6
aI118
aI68
aI18
aI70
aI105
aI46
aI35
aI50
aI204
aI43
aI105
aI42
aI56
aI113
aI20
aI34
aI119
aI60
aI60
aI70
aI258
aI31
aI43
aI134
aI60
aI144
aI84
aI114
aI108
aI30
aI39
aI149
aI65
aI111
aI161
aI75
aI35
aI129
aI121
aI59
aI102
aI182
aI26
aI149
aI55
aI100
aI101
aI38
aI61
aI134
aI21
aI473
aI42
aI153
aI99
aI112
aI45
aI45
aI262
aI186
aI149
aI167
aI71
aI47
aI339
aI109
aI125
aI98
aI91
aI6
aI72
aI123
aI50
aI48
aI38
aI31
aI51
aI179
aI35
aI160
aI6
aI30
aI39
aI6
aI180
aI148
aI8
aI158
aI214
aI70
aI36
aI126
aI40
aI257
aI80
aI63
aI35
aI21
aI103
aI155
aI130
aI425
aI49
aI206
aI45
aI16
aI122
aI74
aI42
aI110
aI125
aI28
aI96
aI97
aI112
aI18
aI96
aI275
aI206
aI35
aI114
aI130
aI72
aI93
aI91
aI168
aI85
aI76
aI46
aI79
aI223
aI112
aI30
aI116
aI78
aI117
aI22
aI149
aI28
aI22
aI7
aI28
aI124
aI121
aI103
aI259
aI75
aI162
aI109
aI29
aI21
aI45
aI129
aI22
aI18
aI80
aI124
aI197
aI176
aI165
aI11
aI220
aI12
aI47
aI65
aI84
aI25
aI51
aI60
aI61
aI87
aI134
aI33
aI60
aI26
aI45
aI45
aI124
aI177
aI23
aI157
aI25
aI106
aI32
aI12
aI83
aI130
aI84
aI11
aI14
aI147
aI120
aI27
aI42
aI108
aI117
aI11
aI59
aI137
aI79
aI49
aI79
aI8
aI26
aI38
aI65
aI346
aI83
aI48
aI101
aI50
aI124
aI240
aI145
aI26
aI100
aI181
aI105
aI87
aI51
aI160
aI161
aI93
aI14
aI7
aI17
aI178
aI302
aI19
aI52
aI85
aI60
aI10
aI237
aI85
aI9
aI6
aI112
aI40
aI360
aI114
aI212
aI56
aI136
aI36
aI63
aI108
aI401
aI9
aI82
aI194
aI30
aI34
aI42
aI7
aI77
aI164
aI39
aI150
aI14
aI83
aI105
aI200
aI25
aI42
aI61
aI9
aI45
aI36
aI83
aI119
aI80
aI29
aI117
aI14
aI44
aI90
aI41
aI83
aI110
aI202
aI32
aI7
aI52
aI191
aI64
aI137
aI10
aI71
aI21
aI122
aI124
aI76
aI56
aI140
aI104
aI149
aI205
aI14
aI104
aI92
aI33
aI90
aI113
aI99
aI102
aI75
aI81
aI115
aI139
aI58
aI143
aI173
aI136
aI98
aI37
aI209
aI65
aI24
aI32
aI7
aI58
aI164
aI142
aI25
aI100
aI177
aI154
aI74
aI10
aI129
aI126
aI22
aI105
aI175
aI46
aI30
aI6
aI142
aI7
aI80
aI58
aI120
aI9
aI25
aI40
aI123
aI145
aI128
aI703
aI224
aI123
aI24
aI38
aI98
aI66
aI84
aI111
aI199
aI34
aI127
aI68
aI6
aI89
aI17
aI74
aI70
aI12
aI18
aI7
aI46
aI140
aI95
aI12
aI77
aI139
aI23
aI117
aI232
aI336
aI36
aI218
aI48
aI52
aI79
aI174
aI103
aI202
aI27
aI117
aI148
aI10
aI16
aI45
aI143
aI173
aI34
aI790
aI169
aI110
aI131
aI102
aI8
aI264
aI25
aI108
aI240
aI53
aI8
aI191
aI6
aI273
aI111
aI381
aI140
aI117
aI91
aI90
aI59
aI107
aI90
aI207
aI39
aI97
aI116
aI8
aI9
aI7
aI214
aI185
aI79
aI13
aI46
aI40
aI81
aI100
aI396
aI63
aI76
aI28
aI52
aI146
aI83
aI70
aI47
aI108
aI267
aI210
aI45
aI18
aI130
aI44
aI65
aI183
aI158
aI59
aI6
aI48
aI174
aI20
aI79
aI10
aI45
aI144
aI141
aI35
aI22
aI170
aI42
aI28
aI107
aI61
aI46
aI30
aI65
aI180
aI158
aI21
aI31
aI128
aI170
aI103
aI31
aI105
aI61
aI152
aI299
aI35
aI120
aI12
aI44
aI74
aI126
aI150
aI89
aI10
aI81
aI140
aI44
aI24
aI102
aI96
aI130
aI12
aI61
aI27
aI145
aI63
aI51
aI137
aI62
aI284
aI93
aI30
aI65
aI66
aI236
aI42
aI41
aI49
aI265
aI158
aI72
aI174
aI52
aI141
aI248
aI42
aI148
aI25
aI186
aI255
aI29
aI125
aI118
aI41
aI163
aI88
aI479
aI29
aI31
aI44
aI55
aI207
aI23
aI52
aI14
aI61
aI54
aI212
aI261
aI140
aI238
aI29
aI237
aI66
aI67
aI166
aI86
aI169
aI39
aI63
aI241
aI205
aI107
aI6
aI159
aI143
aI79
aI191
aI73
aI138
aI66
aI18
aI20
aI14
aI80
aI165
aI77
aI88
aI133
aI96
aI51
aI265
aI76
aI139
aI318
aI18
aI146
aI117
aI24
aI22
aI217
aI203
aI149
aI40
aI116
aI184
aI34
aI203
aI227
aI74
aI19
aI66
aI71
aI91
aI30
aI47
aI128
aI149
aI62
aI108
aI137
aI336
aI70
aI24
aI69
aI108
aI66
aI118
aI133
aI46
aI58
aI74
aI149
aI129
aI23
aI42
aI52
aI7
aI84
aI141
aI107
aI76
aI118
aI44
aI159
aI91
aI24
aI112
aI153
aI17
aI64
aI169
aI86
aI39
aI145
aI78
aI91
aI155
aI60
aI113
aI161
aI109
aI49
aI62
aI75
aI18
aI73
aI91
aI228
aI129
aI49
aI36
aI68
aI116
aI32
aI225
aI84
aI33
aI69
aI104
aI93
aI18
aI52
aI59
aI132
aI132
aI62
aI44
aI133
aI30
aI131
aI240
aI106
aI181
aI112
aI92
aI32
aI107
aI1042
aI157
aI50
aI88
aI196
aI83
aI157
aI6
aI85
aI154
aI61
aI9
aI13
aI79
aI48
aI91
aI103
aI69
aI18
aI155
aI150
aI32
aI96
aI40
aI87
aI193
aI58
aI98
aI196
aI436
aI21
aI63
aI128
aI16
aI81
aI167
aI88
aI265
aI158
aI94
aI80
aI129
aI226
aI225
aI88
aI357
aI16
aI166
aI271
aI208
aI132
aI230
aI47
aI103
aI127
aI115
aI15
aI175
aI86
aI80
aI31
aI22
aI53
aI139
aI69
aI93
aI92
aI192
aI93
aI10
aI31
aI254
aI37
aI38
aI57
aI67
aI156
aI96
aI233
aI6
aI28
aI63
aI75
aI86
aI89
aI76
aI115
aI306
aI16
aI127
aI107
aI110
aI123
aI58
aI149
aI24
aI73
aI6
aI31
aI59
aI46
aI71
aI68
aI56
aI6
aI79
aI19
aI56
aI89
aI119
aI125
aI100
aI264
aI122
aI225
aI239
aI108
aI79
aI156
aI100
aI50
aI20
aI86
aI134
aI12
aI183
aI120
aI148
aI18
aI16
aI10
aI38
aI141
aI284
aI113
aI107
aI14
aI86
aI117
aI39
aI149
aI127
aI242
aI115
aI228
aI254
aI66
aI61
aI126
aI127
aI115
aI505
aI144
aI36
aI12
aI91
aI170
aI131
aI71
aI330
aI76
aI111
aI43
aI16
aI36
aI181
aI66
aI138
aI6
aI105
aI78
aI73
aI30
aI203
aI260
aI146
aI40
aI131
aI146
aI149
aI146
aI96
aI238
aI125
aI41
aI83
aI23
aI83
aI47
aI92
aI21
aI133
aI20
aI70
aI80
aI217
aI100
aI318
aI43
aI45
aI34
aI96
aI100
aI70
aI93
aI141
aI152
aI79
aI139
aI51
aI39
aI201
aI79
aI41
aI85
aI55
aI84
aI55
aI22
aI35
aI6
aI111
aI60
aI83
aI159
aI26
aI50
aI121
aI79
aI31
aI82
aI142
aI25
aI142
aI64
aI6
aI64
aI36
aI73
aI7
aI126
aI32
aI41
aI159
aI71
aI85
aI77
aI69
aI43
aI96
aI84
aI16
aI90
aI62
aI108
aI27
aI8
aI92
aI7
aI75
aI158
aI191
aI60
aI44
aI167
aI114
aI186
aI164
aI79
aI17
aI141
aI140
aI96
aI14
aI9
aI100
aI14
aI25
aI8
aI76
aI274
aI152
aI275
aI16
aI139
aI53
aI184
aI22
aI35
aI7
aI191
aI99
aI65
aI63
aI64
aI103
aI67
aI130
aI59
aI65
aI26
aI74
aI33
aI50
aI151
aI49
aI26
aI191
aI130
aI101
aI48
aI159
aI48
aI133
aI119
aI78
aI34
aI359
aI73
aI25
aI30
aI50
aI89
aI254
aI28
aI79
aI122
aI69
aI18
aI73
aI44
aI43
aI135
aI31
aI38
aI118
aI119
aI152
aI285
aI102
aI181
aI88
aI58
aI105
aI440
aI52
aI95
aI178
aI128
aI87
aI25
aI51
aI38
aI122
aI184
aI130
aI27
aI117
aI52
aI79
aI217
aI103
aI139
aI21
aI67
aI47
aI53
aI74
aI40
aI61
aI157
aI26
aI88
aI171
aI76
aI78
aI28
aI64
aI54
aI20
aI6
aI384
aI47
aI117
aI90
aI253
aI6
aI64
aI21
aI48
aI107
aI77
aI104
aI115
aI42
aI73
aI86
aI93
aI231
aI16
aI79
aI12
aI79
aI111
aI76
aI49
aI18
aI123
aI19
aI172
aI21
aI30
aI247
aI86
aI6
aI44
aI95
aI173
aI62
aI8
aI195
aI102
aI18
aI19
aI176
aI204
aI80
aI93
aI7
aI18
aI41
aI134
aI46
aI55
aI17
aI91
aI6
aI8
aI42
aI120
aI21
aI133
aI38
aI111
aI28
aI62
aI56
aI98
aI130
aI67
aI156
aI23
aI122
aI87
aI69
aI48
aI28
aI103
aI420
aI75
aI47
aI209
aI118
aI253
aI98
aI221
aI30
aI69
aI49
aI35
aI77
aI190
aI136
aI2189
aI41
aI167
aI124
aI316
aI35
aI15
aI187
aI308
aI154
aI12
aI32
aI16
aI27
aI14
aI48
aI93
aI57
aI67
aI52
aI121
aI8
aI86
aI65
aI22
aI36
aI90
aI39
aI103
aI11
aI79
aI22
aI74
aI272
aI214
aI184
aI42
aI153
aI156
aI8
aI131
aI33
aI73
aI143
aI68
aI242
aI86
aI43
aI38
aI69
aI8
aI34
aI75
aI141
aI134
aI103
aI20
aI68
aI12
aI66
aI80
aI136
aI244
aI88
aI18
aI31
aI165
aI209
aI76
aI149
aI85
aI90
aI37
aI126
aI44
aI197
aI12
aI157
aI27
aI163
aI79
aI54
aI149
aI83
aI166
aI130
aI152
aI65
aI200
aI121
aI108
aI30
aI190
aI158
aI203
aI171
aI37
aI41
aI153
aI100
aI111
aI14
aI35
aI175
aI49
aI161
aI188
aI77
aI91
aI93
aI79
aI195
aI57
aI79
aI22
aI77
aI165
aI186
aI102
aI143
aI138
aI302
aI69
aI26
aI94
aI85
aI65
aI15
aI66
aI53
aI97
aI41
aI20
aI33
aI85
aI119
aI235
aI6
aI142
aI68
aI99
aI51
aI41
aI48
aI306
aI112
aI28
aI114
aI477
aI223
aI50
aI133
aI64
aI111
aI99
aI19
aI131
aI122
aI162
aI72
aI109
aI82
aI88
aI31
aI47
aI166
aI16
aI227
aI20
aI33
aI309
aI67
aI52
aI26
aI217
aI14
aI76
aI80
aI30
aI162
aI114
aI22
aI137
aI46
aI57
aI65
aI20
aI56
aI133
aI211
aI23
aI18
aI158
aI6
aI76
aI21
aI153
aI457
aI19
aI89
aI108
aI15
aI127
aI211
aI89
aI87
aI67
aI136
aI115
aI177
aI50
aI39
aI97
aI274
aI144
aI109
aI116
aI113
aI102
aI111
aI113
aI115
aI162
aI197
aI93
aI91
aI52
aI61
aI53
aI118
aI76
aI162
aI83
aI108
aI36
aI301
aI206
aI300
aI868
aI14
aI149
aI45
aI124
aI85
aI86
aI149
aI17
aI122
aI223
aI44
aI133
aI129
aI57
aI30
aI17
aI92
aI32
aI319
aI25
aI57
aI23
aI94
aI21
aI38
aI121
aI260
aI110
aI59
aI100
aI17
aI48
aI23
aI63
aI123
aI98
aI58
aI195
aI36
aI137
aI42
aI44
aI114
aI78
aI77
aI7
aI180
aI29
aI104
aI61
aI84
aI98
aI42
aI47
aI144
aI225
aI130
aI51
aI99
aI124
aI138
aI114
aI64
aI51
aI215
aI208
aI81
aI116
aI93
aI107
aI18
aI159
aI172
aI50
aI60
aI119
aI163
aI95
aI92
aI165
aI9
aI21
aI184
aI31
aI49
aI108
aI115
aI271
aI118
aI116
aI1239
aI172
aI53
aI46
aI102
aI50
aI51
aI60
aI29
aI164
aI60
aI257
aI56
aI98
aI72
aI127
aI29
aI17
aI67
aI45
aI245
aI102
aI43
aI26
aI102
aI306
aI29
aI101
aI16
aI44
aI9
aI35
aI40
aI148
aI144
aI114
aI55
aI145
aI141
aI133
aI11
aI139
aI49
aI92
aI176
aI82
aI117
aI123
aI112
aI19
aI131
aI265
aI47
aI54
aI25
aI15
aI30
aI693
aI57
aI213
aI33
aI46
aI129
aI93
aI135
aI517
aI44
aI61
aI46
aI60
aI105
aI47
aI81
aI232
aI124
aI59
aI193
aI22
aI217
aI156
aI154
aI164
aI43
aI99
aI170
aI79
aI27
aI27
aI81
aI19
aI86
aI133
aI30
aI48
aI18
aI110
aI47
aI225
aI22
aI69
aI105
aI95
aI53
aI169
aI154
aI134
aI54
aI111
aI82
aI152
aI53
aI48
aI142
aI83
aI8
aI12
aI157
aI161
aI226
aI36
aI25
aI7
aI32
aI101
aI107
aI128
aI247
aI137
aI45
aI211
aI40
aI94
aI331
aI69
aI264
aI62
aI226
aI158
aI146
aI171
aI268
aI111
aI84
aI87
aI172
aI106
aI165
aI109
aI115
aI39
aI217
aI326
aI85
aI109
aI13
aI61
aI72
aI158
aI66
aI19
aI84
aI16
aI60
aI11
aI202
aI219
aI29
aI191
aI87
aI117
aI346
aI119
aI68
aI80
aI193
aI187
aI48
aI69
aI123
aI13
aI65
aI8
aI16
aI16
aI118
aI28
aI139
aI212
aI93
aI233
aI110
aI130
aI43
aI193
aI31
aI88
aI33
aI92
aI163
aI29
aI169
aI19
aI19
aI64
aI119
aI297
aI196
aI33
aI35
aI94
aI34
aI66
aI135
aI71
aI103
aI127
aI270
aI66
aI184
aI308
aI88
aI106
aI188
aI17
aI65
aI96
aI222
aI66
aI80
aI427
aI83
aI27
aI182
aI72
aI49
aI18
aI76
aI39
aI179
aI150
aI84
aI312
aI34
aI117
aI110
aI150
aI6
aI783
aI23
aI57
aI87
aI8
aI66
aI16
aI80
aI81
aI43
aI118
aI14
aI92
aI77
aI82
aI59
aI106
aI70
aI38
aI79
aI77
aI15
aI8
aI8
aI26
aI206
aI69
aI38
aI125
aI104
aI7
aI35
aI145
aI131
aI41
aI210
aI393
aI177
aI68
aI153
aI19
aI348
aI182
aI111
aI124
aI15
aI31
aI21
aI226
aI75
aI43
aI131
aI49
aI104
aI95
aI75
aI28
aI85
aI96
aI141
aI18
aI192
aI142
aI76
aI149
aI206
aI79
aI315
aI113
aI30
aI116
aI8
aI39
aI139
aI71
aI135
aI64
aI27
aI89
aI141
aI124
aI58
aI6
aI526
aI203
aI21
aI68
aI75
aI17
aI77
aI146
aI48
aI72
aI38
aI77
aI36
aI88
aI80
aI24
aI116
aI63
aI83
aI24
aI135
aI14
aI134
aI15
aI27
aI82
aI322
aI103
aI141
aI146
aI80
aI104
aI107
aI53
aI172
aI24
aI27
aI94
aI124
aI467
aI23
aI159
aI60
aI31
aI235
aI112
aI136
aI144
aI48
aI113
aI178
aI88
aI127
aI206
aI8
aI95
aI42
aI163
aI18
aI124
aI79
aI206
aI67
aI217
aI17
aI87
aI13
aI6
aI42
aI87
aI201
aI145
aI144
aI64
aI142
aI174
aI16
aI57
aI88
aI8
aI20
aI84
aI55
aI39
aI102
aI173
aI228
aI99
aI170
aI51
aI23
aI118
aI66
aI136
aI106
aI63
aI62
aI46
aI43
aI82
aI49
aI142
aI57
aI28
aI229
aI151
aI22
aI101
aI287
aI16
aI28
aI51
aI97
aI77
aI129
aI119
aI222
aI52
aI161
aI66
aI91
aI139
aI86
aI158
aI137
aI140
aI117
aI99
aI95
aI167
aI69
aI67
aI16
aI97
aI115
aI135
aI357
aI163
aI82
aI68
aI144
aI102
aI56
aI78
aI71
aI71
aI109
aI8
aI106
aI94
aI71
aI75
aI16
aI105
aI198
aI6
aI40
aI24
aI144
aI87
aI42
aI122
aI279
aI145
aI275
aI172
aI26
aI15
aI101
aI62
aI21
aI12
aI154
aI38
aI14
aI44
aI12
aI37
aI14
aI96
aI31
aI107
aI33
aI122
aI18
aI69
aI57
aI61
aI64
aI142
aI42
aI6
aI63
aI77
aI47
aI198
aI112
aI120
aI177
aI221
aI48
aI46
aI45
aI132
aI76
aI46
aI115
aI414
aI112
aI144
aI95
aI80
aI91
aI105
aI131
aI56
aI128
aI157
aI64
aI95
aI108
aI60
aI130
aI49
aI23
aI39
aI73
aI104
aI115
aI271
aI469
aI162
aI83
aI18
aI104
aI16
aI89
aI48
aI56
aI87
aI12
aI195
aI65
aI95
aI70
aI79
aI98
aI115
aI91
aI67
aI76
aI28
aI179
aI67
aI47
aI66
aI9
aI84
aI133
aI6
aI72
aI34
aI50
aI92
aI96
aI267
aI55
aI14
aI26
aI108
aI365
aI112
aI18
aI85
aI48
aI37
aI215
aI61
aI30
aI28
aI305
aI71
aI75
aI83
aI12
aI41
aI14
aI119
aI51
aI1541
aI152
aI13
aI6
aI59
aI10
aI13
aI15
aI96
aI13
aI185
aI122
aI35
aI271
aI14
aI292
aI62
aI78
aI62
aI65
aI159
aI211
aI32
aI43
aI60
aI249
aI87
aI140
aI114
aI40
aI203
aI149
aI165
aI123
aI24
aI146
aI43
aI56
aI103
aI11
aI53
aI199
aI33
aI126
aI74
aI104
aI154
aI79
aI90
aI143
aI64
aI12
aI221
aI141
aI23
aI150
aI141
aI86
aI181
aI159
aI47
aI147
aI16
aI128
aI106
aI393
aI100
aI67
aI26
aI96
aI128
aI234
aI182
aI56
aI84
aI32
aI50
aI82
aI152
aI71
aI70
aI391
aI179
aI163
aI223
aI91
aI16
aI85
aI130
aI89
aI113
aI124
aI41
aI40
aI47
aI82
aI506
aI52
aI39
aI105
aI19
aI91
aI48
aI118
aI27
aI199
aI184
aI157
aI320
aI111
aI121
aI73
aI43
aI63
aI17
aI331
aI72
aI78
aI75
aI12
aI39
aI65
aI53
aI46
aI116
aI77
aI257
aI115
aI38
aI84
aI107
aI56
aI163
aI163
aI269
aI121
aI194
aI123
aI30
aI125
aI148
aI104
aI146
aI18
aI113
aI131
aI58
aI66
aI64
aI72
aI71
aI118
aI165
aI119
aI178
aI134
aI251
aI62
aI51
aI12
aI32
aI9
aI14
aI134
aI21
aI86
aI27
aI79
aI8
aI70
aI68
aI34
aI71
aI50
aI97
aI36
aI8
aI42
aI21
aI63
aI14
aI242
aI134
aI32
aI13
aI349
aI38
aI70
aI136
aI40
aI94
aI92
aI158
aI49
aI74
aI44
aI101
aI82
aI131
aI179
aI164
aI109
aI60
aI81
aI101
aI110
aI103
aI46
aI98
aI44
aI127
aI50
aI34
aI46
aI132
aI38
aI69
aI75
aI63
aI42
aI220
aI129
aI6
aI106
aI119
aI40
aI30
aI92
aI38
aI29
aI236
aI129
aI48
aI27
aI126
aI16
aI68
aI108
aI14
aI75
aI26
aI71
aI58
aI17
aI47
aI55
aI6
aI168
aI51
aI159
aI30
aI61
aI126
aI113
aI903
aI14
aI153
aI94
aI20
aI114
aI136
aI39
aI16
aI71
aI168
aI198
aI55
aI87
aI214
aI133
aI73
aI253
aI78
aI47
aI83
aI76
aI27
aI227
aI12
aI74
aI14
aI12
aI69
aI95
aI33
aI101
aI14
aI159
aI31
aI166
aI133
aI239
aI112
aI80
aI58
aI172
aI114
aI244
aI186
aI108
aI49
aI45
aI45
aI169
aI462
aI149
aI350
aI67
aI403
aI23
aI157
aI48
aI20
aI41
aI158
aI6
aI113
aI148
aI50
aI17
aI104
aI9
aI97
aI117
aI94
aI60
aI104
aI30
aI100
aI198
aI63
aI85
aI9
aI131
aI163
aI49
aI51
aI64
aI29
aI150
aI78
aI47
aI24
aI111
aI11
aI44
aI175
aI229
aI187
aI252
aI39
aI37
aI94
aI55
aI92
aI30
aI107
aI113
aI64
aI120
aI130
aI54
aI190
aI105
aI160
aI19
aI84
aI11
aI128
aI726
aI115
aI36
aI14
aI25
aI178
aI177
aI269
aI223
aI84
aI156
aI164
aI29
aI46
aI8
aI151
aI59
aI96
aI97
aI70
aI84
aI196
aI12
aI126
aI75
aI51
aI59
aI64
aI39
aI37
aI40
aI71
aI145
aI244
aI32
aI22
aI32
aI111
aI140
aI153
aI92
aI118
aI92
aI60
aI79
aI138
aI82
aI31
aI22
aI212
aI70
aI411
aI125
aI86
aI207
aI69
aI171
aI124
aI32
aI22
aI7
aI80
aI99
aI52
aI248
aI27
aI47
aI46
aI80
aI87
aI153
aI40
aI89
aI63
aI109
aI56
aI172
aI137
aI22
aI53
aI102
aI14
aI97
aI53
aI114
aI295
aI104
aI96
aI56
aI88
aI73
aI155
aI118
aI64
aI159
aI63
aI176
aI102
aI128
aI139
aI95
aI120
aI202
aI36
aI44
aI6
aI245
aI62
aI67
aI77
aI129
aI61
aI47
aI194
aI106
aI232
aI398
aI126
aI20
aI119
aI12
aI221
aI75
aI35
aI60
aI6
aI43
aI75
aI71
aI93
aI36
aI20
aI45
aI39
aI87
aI95
aI156
aI62
aI190
aI52
aI18
aI46
aI8
aI256
aI10
aI32
aI168
aI183
aI174
aI8
aI105
aI29
aI283
aI89
aI42
aI172
aI119
aI185
aI34
aI113
aI114
aI182
aI21
aI104
aI85
aI162
aI70
aI12
aI129
aI34
aI250
aI10
aI74
aI88
aI50
aI56
aI75
aI43
aI66
aI198
aI182
aI143
aI71
aI100
aI39
aI148
aI86
aI181
aI298
aI184
aI49
aI105
aI31
aI153
aI11
aI84
aI18
aI320
aI78
aI64
aI102
aI54
aI564
aI27
aI16
aI172
aI61
aI58
aI76
aI46
aI95
aI54
aI27
aI23
aI59
aI20
aI67
aI106
aI23
aI56
aI192
aI79
aI35
aI252
aI224
aI74
aI128
aI30
aI27
aI56
aI75
aI47
aI82
aI90
aI24
aI122
aI10
aI17
aI311
aI86
aI107
aI36
aI22
aI60
aI19
aI306
aI59
aI33
aI142
aI232
aI232
aI191
aI61
aI18
aI69
aI132
aI163
aI51
aI6
aI70
aI64
aI45
aI49
aI167
aI144
aI120
aI53
aI68
aI87
aI32
aI379
aI68
aI102
aI67
aI174
aI167
aI19
aI209
aI39
aI192
aI210
aI50
aI70
aI641
aI121
aI266
aI42
aI410
aI128
aI16
aI51
aI66
aI19
aI227
aI53
aI134
aI142
aI9
aI438
aI40
aI184
aI36
aI84
aI366
aI41
aI47
aI162
aI12
aI6
aI297
aI62
aI50
aI416
aI36
aI91
aI129
aI100
aI13
aI201
aI95
aI110
aI20
aI181
aI36
aI392
aI75
aI123
aI185
aI80
aI116
aI169
aI8
aI31
aI27
aI70
aI135
aI78
aI71
aI135
aI61
aI88
aI29
aI100
aI37
aI110
aI49
aI79
aI71
aI66
aI8
aI113
aI192
aI70
aI145
aI63
aI19
aI67
aI44
aI59
aI121
aI22
aI44
aI56
aI65
aI139
aI74
aI115
aI75
aI91
aI107
aI128
aI224
aI67
aI73
aI92
aI41
aI51
aI59
aI73
aI67
aI43
aI54
aI14
aI51
aI185
aI25
aI136
aI43
aI611
aI59
aI55
aI77
aI6
aI67
aI208
aI41
aI78
aI100
aI38
aI76
aI79
aI70
aI94
aI33
aI252
aI56
aI248
aI33
aI56
aI54
aI137
aI42
aI76
aI321
aI19
aI19
aI56
aI84
aI9
aI59
aI21
aI166
aI52
aI114
aI79
aI114
aI17
aI49
aI70
aI211
aI16
aI28
aI23
aI18
aI21
aI49
aI8
aI20
aI176
aI23
aI79
aI104
aI93
aI107
aI84
aI29
aI33
aI428
aI100
aI59
aI56
aI42
aI208
aI98
aI35
aI163
aI8
aI30
aI42
aI176
aI66
aI62
aI57
aI69
aI237
aI24
aI230
aI86
aI120
aI135
aI56
aI29
aI109
aI61
aI123
aI55
aI87
aI89
aI147
aI14
aI244
aI218
aI94
aI118
aI78
aI19
aI78
aI44
aI30
aI10
aI25
aI136
aI106
aI72
aI78
aI122
aI76
aI48
aI30
aI177
aI128
aI52
aI26
aI152
aI83
aI202
aI151
aI6
aI68
aI12
aI158
aI104
aI85
aI22
aI196
aI78
aI43
aI15
aI21
aI30
aI57
aI167
aI30
aI143
aI118
aI39
aI40
aI18
aI15
aI26
aI447
aI134
aI41
aI204
aI121
aI21
aI58
aI21
aI34
aI30
aI17
aI77
aI99
aI68
aI570
aI13
aI92
aI13
aI51
aI207
aI184
aI40
aI18
aI52
aI141
aI40
aI121
aI151
aI178
aI73
aI64
aI45
aI157
aI22
aI15
aI90
aI131
aI161
aI152
aI135
aI63
aI73
aI73
aI344
aI6
aI113
aI57
aI15
aI49
aI125
aI285
aI90
aI197
aI129
aI262
aI443
aI51
aI30
aI42
aI150
aI14
aI92
aI144
aI153
aI67
aI8
aI96
aI130
aI40
aI94
aI277
aI6
aI15
aI46
aI6
aI207
aI176
aI67
aI64
aI9
aI159
aI72
aI59
aI341
aI75
aI38
aI59
aI278
aI179
aI128
aI127
aI55
aI95
aI287
aI295
aI50
aI36
aI60
aI11
aI94
aI84
aI61
aI89
aI43
aI11
aI14
aI193
aI50
aI180
aI356
aI26
aI30
aI552
aI117
aI30
aI61
aI25
aI140
aI276
aI128
aI31
aI137
aI41
aI122
aI16
aI123
aI25
aI26
aI95
aI15
aI227
aI44
aI84
aI125
aI6
aI32
aI16
aI110
aI77
aI18
aI130
aI14
aI120
aI170
aI9
aI183
aI19
aI18
aI183
aI132
aI37
aI12
aI27
aI179
aI95
aI20
aI87
aI119
aI69
aI71
aI73
aI13
aI197
aI76
aI199
aI101
aI117
aI39
aI71
aI46
aI139
aI23
aI36
aI128
aI45
aI35
aI66
aI59
aI167
aI43
aI79
aI23
aI79
aI116
aI131
aI6
aI22
aI39
aI152
aI12
aI8
aI97
aI151
aI109
aI198
aI142
aI37
aI12
aI96
aI268
aI49
aI41
aI197
aI31
aI154
aI62
aI33
aI59
aI165
aI237
aI37
aI148
aI162
aI17
aI84
aI179
aI78
aI30
aI113
aI62
aI45
aI56
aI67
aI20
aI26
aI25
aI20
aI224
aI104
aI28
aI93
aI47
aI10
aI189
aI24
aI149
aI211
aI61
aI118
aI177
aI152
aI44
aI156
aI25
aI120
aI211
aI127
aI21
aI56
aI16
aI121
aI17
aI197
aI118
aI65
aI22
aI169
aI118
aI193
aI21
aI104
aI97
aI63
aI83
aI65
aI58
aI8
aI137
aI153
aI39
aI152
aI115
aI81
aI75
aI27
aI249
aI107
aI113
aI53
aI199
aI16
aI123
aI91
aI94
aI129
aI77
aI117
aI75
aI98
aI186
aI96
aI12
aI35
aI16
aI40
aI87
aI90
aI59
aI107
aI125
aI22
aI13
aI54
aI24
aI127
aI84
aI37
aI39
aI12
aI23
aI124
aI20
aI132
aI84
aI255
aI13
aI106
aI57
aI12
aI68
aI105
aI69
aI98
aI36
aI75
aI133
aI67
aI68
aI107
aI26
aI220
aI168
aI73
aI27
aI168
aI46
aI98
aI50
aI66
aI72
aI56
aI182
aI99
aI77
aI69
aI69
aI117
aI125
aI27
aI31
aI88
aI81
aI18
aI114
aI84
aI133
aI302
aI83
aI8
aI64
aI64
aI12
aI107
aI75
aI8
aI52
aI52
aI86
aI124
aI103
aI91
aI22
aI37
aI8
aI10
aI116
aI75
aI354
aI49
aI85
aI38
aI199
aI75
aI48
aI79
aI71
aI220
aI66
aI93
aI87
aI205
aI69
aI95
aI8
aI10
aI69
aI70
aI196
aI258
aI93
aI8
aI48
aI10
aI108
aI69
aI21
aI135
aI190
aI220
aI119
aI84
aI14
aI117
aI54
aI18
aI62
aI16
aI31
aI30
aI47
aI48
aI63
aI44
aI51
aI35
aI222
aI30
aI24
aI53
aI123
aI18
aI48
aI171
aI87
aI61
aI78
aI24
aI21
aI50
aI20
aI55
aI176
aI16
aI33
aI198
aI139
aI147
aI48
aI61
aI70
aI45
aI100
aI104
aI79
aI37
aI261
aI25
aI120
aI28
aI173
aI187
aI124
aI94
aI201
aI11
aI77
aI81
aI247
aI144
aI47
aI111
aI143
aI49
aI144
aI190
aI124
aI61
aI8
aI16
aI68
aI14
aI205
aI77
aI48
aI19
aI144
aI284
aI105
aI66
aI72
aI51
aI94
aI146
aI62
aI76
aI152
aI32
aI116
aI36
aI17
aI103
aI133
aI50
aI23
aI61
aI126
aI168
aI18
aI216
aI24
aI96
aI89
aI38
aI156
aI117
aI121
aI6
aI140
aI109
aI37
aI200
aI82
aI110
aI74
aI12
aI311
aI82
aI61
aI137
aI98
aI25
aI131
aI30
aI49
aI166
aI144
aI72
aI156
aI118
aI38
aI18
aI42
aI112
aI194
aI60
aI45
aI19
aI345
aI89
aI64
aI23
aI38
aI191
aI160
aI28
aI25
aI122
aI150
aI262
aI85
aI63
aI37
aI77
aI92
aI53
aI61
aI106
aI56
aI122
aI148
aI386
aI119
aI46
aI119
aI565
aI17
aI65
aI84
aI58
aI260
aI146
aI61
aI213
aI30
aI115
aI122
aI23
aI123
aI63
aI284
aI48
aI78
aI70
aI91
aI107
aI227
aI14
aI125
aI145
aI74
aI176
aI119
aI214
aI45
aI189
aI127
aI14
aI36
aI238
aI48
aI85
aI266
aI114
aI69
aI59
aI266
aI68
aI28
aI126
aI63
aI83
aI19
aI146
aI111
aI90
aI61
aI144
aI52
aI36
aI99
aI39
aI69
aI214
aI21
aI130
aI93
aI224
aI42
aI70
aI62
aI50
aI305
aI77
aI8
aI100
aI10
aI23
aI17
aI338
aI331
aI34
aI59
aI60
aI41
aI75
aI95
aI24
aI21
aI216
aI111
aI34
aI19
aI56
aI186
aI128
aI125
aI84
aI83
aI48
aI151
aI10
aI130
aI105
aI90
aI75
aI7
aI45
aI21
aI28
aI86
aI33
aI82
aI131
aI127
aI104
aI8
aI42
aI67
aI76
aI90
aI78
aI10
aI99
aI63
aI25
aI200
aI78
aI158
aI141
aI133
aI54
aI23
aI40
aI71
aI328
aI113
aI57
aI15
aI81
aI46
aI95
aI37
aI108
aI17
aI27
aI65
aI56
aI194
aI12
aI289
aI80
aI82
aI31
aI64
aI176
aI79
aI269
aI43
aI92
aI46
aI55
aI76
aI94
aI261
aI116
aI339
aI110
aI115
aI36
aI91
aI76
aI200
aI273
aI67
aI104
aI190
aI45
aI170
aI77
aI69
aI107
aI87
aI59
aI6
aI22
aI55
aI32
aI175
aI18
aI429
aI118
aI146
aI120
aI73
aI38
aI108
aI40
aI84
aI83
aI61
aI26
aI76
aI79
aI143
aI138
aI72
aI99
aI177
aI102
aI125
aI192
aI206
aI30
aI104
aI88
aI34
aI376
aI36
aI50
aI108
aI185
aI118
aI136
aI23
aI46
aI14
aI135
aI98
aI33
aI110
aI76
aI188
aI38
aI74
aI328
aI81
aI41
aI71
aI36
aI168
aI228
aI32
aI9
aI66
aI95
aI59
aI200
aI63
aI78
aI13
aI46
aI120
aI80
aI46
aI84
aI44
aI43
aI21
aI77
aI61
aI108
aI11
aI198
aI84
aI123
aI62
aI41
aI95
aI65
aI69
aI29
aI18
aI59
aI140
aI13
aI64
aI104
aI151
aI30
aI68
aI45
aI12
aI143
aI112
aI21
aI12
aI149
aI199
aI47
aI47
aI17
aI29
aI20
aI72
aI60
aI58
aI45
aI7
aI18
aI209
aI31
aI194
aI11
aI34
aI30
aI42
aI164
aI17
aI230
aI65
aI39
aI173
aI59
aI19
aI122
aI163
aI30
aI58
aI48
aI28
aI24
aI28
aI52
aI88
aI37
aI150
aI47
aI51
aI80
aI158
aI277
aI109
aI23
aI29
aI22
aI6
aI58
aI30
aI336
aI65
aI22
aI97
aI120
aI86
aI58
aI154
aI65
aI280
aI140
aI99
aI27
aI94
aI22
aI54
aI90
aI105
aI8
aI19
aI56
aI268
aI283
aI46
aI111
aI13
aI6
aI45
aI302
aI191
aI61
aI66
aI71
aI183
aI76
aI191
aI13
aI162
aI8
aI133
aI25
aI96
aI47
aI161
aI19
aI251
aI128
aI126
aI59
aI137
aI170
aI67
aI118
aI30
aI57
aI26
aI50
aI18
aI157
aI56
aI8
aI10
aI109
aI130
aI137
aI66
aI250
aI27
aI196
aI123
aI21
aI63
aI98
aI186
aI91
aI95
aI126
aI70
aI8
aI127
aI66
aI208
aI174
aI11
aI73
aI135
aI15
aI245
aI91
aI36
aI75
aI79
aI85
aI197
aI32
aI114
aI25
aI70
aI31
aI49
aI21
aI22
aI62
aI282
aI170
aI137
aI255
aI111
aI37
aI187
aI105
aI175
aI62
aI41
aI63
aI34
aI117
aI46
aI14
aI50
aI115
aI65
aI37
aI30
aI155
aI92
aI181
aI38
aI56
aI71
aI72
aI17
aI38
aI116
aI105
aI52
aI213
aI157
aI106
aI110
aI411
aI56
aI24
aI22
aI103
aI34
aI54
aI15
aI32
aI32
aI80
aI26
aI170
aI59
aI18
aI300
aI139
aI74
aI75
aI35
aI36
aI165
aI122
aI18
aI65
aI88
aI10
aI188
aI85
aI56
aI107
aI38
aI24
aI123
aI95
aI101
aI8
aI18
aI145
aI99
aI92
aI173
aI47
aI196
aI149
aI181
aI18
aI193
aI69
aI63
aI25
aI165
aI98
aI40
aI190
aI54
aI124
aI71
aI111
aI94
aI148
aI33
aI23
aI54
aI8
aI125
aI48
aI8
aI57
aI13
aI414
aI87
aI12
aI201
aI35
aI14
aI72
aI89
aI18
aI42
aI37
aI91
aI198
aI57
aI80
aI8
aI64
aI90
aI37
aI9
aI63
aI84
aI59
aI100
aI30
aI32
aI85
aI96
aI65
aI58
aI235
aI120
aI32
aI80
aI64
aI31
aI54
aI111
aI8
aI12
aI76
aI12
aI12
aI65
aI117
aI68
aI35
aI230
aI116
aI101
aI52
aI68
aI75
aI95
aI124
aI37
aI93
aI96
aI85
aI145
aI128
aI44
aI209
aI147
aI40
aI85
aI206
aI111
aI38
aI55
aI23
aI60
aI42
aI61
aI56
aI55
aI18
aI7
aI256
aI141
aI37
aI79
aI19
aI60
aI130
aI221
aI131
aI76
aI132
aI29
aI8
aI129
aI181
aI55
aI217
aI59
aI111
aI52
aI86
aI28
aI85
aI40
aI64
aI298
aI49
aI23
aI140
aI19
aI100
aI10
aI56
aI93
aI89
aI32
aI84
aI225
aI85
aI203
aI576
aI21
aI70
aI83
aI17
aI207
aI29
aI26
aI293
aI151
aI277
aI131
aI186
aI50
aI115
aI26
aI26
aI21
aI8
aI15
aI8
aI18
aI138
aI279
aI103
aI246
aI103
aI67
aI61
aI242
aI118
aI189
aI68
aI146
aI214
aI61
aI6
aI118
aI139
aI89
aI130
aI72
aI93
aI25
aI25
aI78
aI89
aI276
aI188
aI88
aI39
aI144
aI47
aI101
aI29
aI126
aI51
aI49
aI56
aI428
aI12
aI133
aI50
aI131
aI79
aI70
aI57
aI18
aI42
aI72
aI46
aI95
aI105
aI68
aI55
aI105
aI145
aI77
aI71
aI100
aI88
aI56
aI61
aI284
aI344
aI111
aI36
aI42
aI87
aI31
aI107
aI134
aI30
aI71
aI64
aI30
aI67
aI129
aI44
aI12
aI30
aI146
aI124
aI55
aI30
aI101
aI115
aI85
aI94
aI151
aI68
aI25
aI448
aI238
aI65
aI40
aI18
aI74
aI18
aI89
aI81
aI21
aI225
aI65
aI36
aI169
aI31
aI114
aI88
aI186
aI201
aI8
aI17
aI18
aI253
aI78
aI34
aI280
aI90
aI26
aI44
aI48
aI63
aI103
aI68
aI64
aI83
aI57
aI78
aI316
aI108
aI201
aI128
aI80
aI46
aI45
aI83
aI95
aI127
aI23
aI103
aI92
aI82
aI180
aI59
aI245
aI71
aI106
aI127
aI111
aI166
aI147
aI10
aI12
aI74
aI28
aI27
aI271
aI52
aI140
aI53
aI26
aI61
aI35
aI35
aI109
aI34
aI63
aI406
aI111
aI96
aI34
aI182
aI115
aI163
aI58
aI12
aI39
aI178
aI356
aI8
aI148
aI103
aI20
aI38
aI169
aI64
aI34
aI191
aI39
aI195
aI63
aI13
aI173
aI29
aI25
aI75
aI17
aI109
aI55
aI404
aI117
aI140
aI18
aI13
aI82
aI128
aI66
aI12
aI72
aI45
aI118
aI157
aI47
aI220
aI84
aI74
aI107
aI36
aI130
aI47
aI144
aI35
aI58
aI52
aI153
aI71
aI42
aI21
aI439
aI44
aI66
aI12
aI67
aI277
aI145
aI156
aI29
aI8
aI43
aI78
aI548
aI67
aI95
aI63
aI183
aI19
aI47
aI114
aI55
aI40
aI128
aI358
aI43
aI80
aI65
aI84
aI125
aI47
aI21
aI7
aI23
aI181
aI20
aI76
aI48
aI13
aI101
aI24
aI88
aI41
aI135
aI61
aI107
aI43
aI46
aI100
aI79
aI104
aI55
aI117
aI95
aI151
aI112
aI35
aI43
aI25
aI37
aI138
aI65
aI259
aI88
aI102
aI22
aI253
aI12
aI69
aI194
aI141
aI49
aI205
aI224
aI48
aI149
aI122
aI228
aI152
aI142
aI155
aI175
aI43
aI28
aI149
aI17
aI105
aI397
aI152
aI56
aI84
aI52
aI346
aI117
aI14
aI41
aI151
aI49
aI94
aI24
aI13
aI124
aI60
aI118
aI138
aI10
aI62
aI37
aI65
aI41
aI6
aI590
aI84
aI33
aI26
aI95
aI50
aI157
aI126
aI346
aI92
aI89
aI125
aI117
aI101
aI13
aI81
aI106
aI96
aI174
aI15
aI23
aI208
aI57
aI95
aI638
aI53
aI258
aI35
aI20
aI179
aI25
aI183
aI114
aI253
aI68
aI58
aI40
aI105
aI77
aI55
aI47
aI69
aI39
aI8
aI48
aI37
aI23
aI236
aI91
aI217
aI45
aI6
aI79
aI148
aI116
aI37
aI53
aI264
aI62
aI17
aI45
aI63
aI10
aI48
aI175
aI34
aI13
aI97
aI91
aI17
aI17
aI8
aI9
aI44
aI105
aI103
aI52
aI99
aI114
aI109
aI19
aI101
aI118
aI244
aI112
aI34
aI86
aI172
aI49
aI66
aI38
aI130
aI64
aI26
aI40
aI162
aI33
aI74
aI68
aI46
aI121
aI217
aI221
aI111
aI18
aI14
aI255
aI73
aI17
aI28
aI121
aI128
aI13
aI39
aI16
aI122
aI50
aI49
aI207
aI109
aI59
aI114
aI38
aI93
aI123
aI108
aI90
aI6
aI22
aI50
aI30
aI19
aI23
aI190
aI765
aI8
aI194
aI217
aI8
aI110
aI81
aI158
aI121
aI158
aI35
aI112
aI84
aI76
aI6
aI28
aI19
aI58
aI49
aI39
aI42
aI238
aI70
aI92
aI196
aI39
aI264
aI176
aI113
aI158
aI87
aI194
aI161
aI108
aI38
aI19
aI100
aI10
aI281
aI40
aI209
aI208
aI141
aI54
aI53
aI105
aI79
aI112
aI106
aI92
aI6
aI27
aI154
aI109
aI59
aI46
aI245
aI74
aI99
aI159
aI149
aI32
aI60
aI68
aI138
aI276
aI131
aI42
aI209
aI72
aI196
aI82
aI83
aI55
aI61
aI134
aI67
aI12
aI86
aI57
aI103
aI33
aI69
aI36
aI98
aI45
aI230
aI69
aI244
aI43
aI8
aI90
aI16
aI151
aI135
aI61
aI79
aI47
aI10
aI64
aI71
aI169
aI68
aI250
aI53
aI76
aI110
aI30
aI200
aI87
aI19
aI18
aI167
aI20
aI145
aI177
aI145
aI41
aI89
aI103
aI92
aI18
aI50
aI252
aI148
aI106
aI117
aI187
aI143
aI146
aI6
aI9
aI178
aI58
aI52
aI60
aI151
aI92
aI73
aI57
aI39
aI29
aI46
aI45
aI1312
aI75
aI6
aI54
aI69
aI111
aI100
aI17
aI126
aI51
aI36
aI153
aI31
aI56
aI69
aI188
aI113
aI79
aI51
aI222
aI28
aI105
aI109
aI268
aI8
aI48
aI145
aI9
aI64
aI28
aI48
aI377
aI162
aI96
aI12
aI56
aI120
aI29
aI9
aI100
aI21
aI119
aI85
aI74
aI104
aI177
aI91
aI191
aI119
aI63
aI249
aI66
aI59
aI87
aI31
aI27
aI31
aI132
aI200
aI96
aI109
aI145
aI79
aI14
aI36
aI45
aI53
aI116
aI27
aI94
aI346
aI105
aI65
aI112
aI72
aI124
aI34
aI6
aI137
aI31
aI83
aI17
aI100
aI91
aI19
aI25
aI19
aI10
aI181
aI60
aI129
aI77
aI143
aI79
aI140
aI29
aI13
aI6
aI36
aI18
aI6
aI45
aI117
aI42
aI24
aI167
aI149
aI262
aI63
aI199
aI27
aI38
aI123
aI499
aI180
aI44
aI25
aI124
aI86
aI47
aI107
aI27
aI82
aI102
aI13
aI194
aI13
aI44
aI8
aI50
aI149
aI102
aI147
aI70
aI161
aI78
aI324
aI393
aI6
aI60
aI193
aI248
aI162
aI52
aI54
aI56
aI61
aI13
aI88
aI81
aI156
aI143
aI131
aI152
aI156
aI68
aI105
aI150
aI179
aI171
aI83
aI105
aI472
aI113
aI222
aI54
aI148
aI19
aI31
aI92
aI45
aI14
aI36
aI399
aI152
aI99
aI125
aI177
aI87
aI75
aI67
aI272
aI86
aI57
aI84
aI41
aI30
aI89
aI92
aI48
aI143
aI46
aI84
aI36
aI12
aI166
aI25
aI43
aI80
aI8
aI109
aI96
aI6
aI80
aI155
aI121
aI222
aI92
aI57
aI96
aI50
aI23
aI31
aI56
aI34
aI84
aI285
aI108
aI103
aI65
aI69
aI92
aI95
aI105
aI54
aI79
aI140
aI197
aI208
aI70
aI53
aI193
aI119
aI135
aI93
aI83
aI172
aI81
aI111
aI182
aI142
aI133
aI67
aI56
aI31
aI90
aI60
aI66
aI105
aI31
aI77
aI112
aI80
aI190
aI103
aI287
aI35
aI108
aI6
aI95
aI106
aI149
aI72
aI33
aI95
aI60
aI168
aI107
aI18
aI197
aI38
aI52
aI31
aI112
aI44
aI32
aI155
aI28
aI10
aI138
aI56
aI81
aI224
aI58
aI71
aI89
aI10
aI25
aI218
aI62
aI128
aI76
aI46
aI103
aI36
aI11
aI87
aI115
aI14
aI41
aI61
aI21
aI28
aI70
aI77
aI218
aI120
aI136
aI6
aI14
aI27
aI162
aI58
aI18
aI54
aI19
aI173
aI129
aI101
aI89
aI27
aI127
aI45
aI285
aI133
aI10
aI25
aI53
aI39
aI221
aI86
aI70
aI55
aI7
aI64
aI160
aI163
aI17
aI27
aI18
aI25
aI30
aI58
aI93
aI18
aI7
aI68
aI65
aI65
aI96
aI126
aI138
aI278
aI119
aI81
aI73
aI20
aI37
aI19
aI16
aI81
aI173
aI20
aI26
aI79
aI346
aI28
aI8
aI84
aI36
aI96
aI48
aI171
aI24
aI14
aI155
aI330
aI178
aI97
aI76
aI68
aI6
aI105
aI128
aI41
aI129
aI85
aI6
aI46
aI69
aI64
aI113
aI25
aI61
aI115
aI39
aI85
aI95
aI110
aI67
aI128
aI101
aI92
aI134
aI74
aI112
aI12
aI50
aI120
aI8
aI59
aI42
aI107
aI140
aI49
aI28
aI67
aI110
aI32
aI61
aI74
aI154
aI191
aI114
aI111
aI89
aI247
aI40
aI270
aI192
aI34
aI115
aI73
aI64
aI57
aI143
aI56
aI18
aI45
aI40
aI124
aI33
aI55
aI53
aI235
aI10
aI80
aI98
aI83
aI58
aI20
aI71
aI175
aI70
aI40
aI29
aI65
aI142
aI111
aI163
aI25
aI58
aI25
aI58
aI135
aI147
aI45
aI45
aI150
aI147
aI106
aI122
aI86
aI59
aI161
aI130
aI87
aI78
aI41
aI440
aI83
aI185
aI79
aI72
aI14
aI55
aI58
aI81
aI82
aI309
aI168
aI69
aI37
aI12
aI155
aI60
aI40
aI64
aI20
aI191
aI148
aI20
aI138
aI126
aI255
aI12
aI53
aI138
aI144
aI154
aI43
aI61
aI62
aI295
aI144
aI13
aI166
aI46
aI39
aI165
aI138
aI65
aI63
aI78
aI1124
aI102
aI195
aI84
aI61
aI56
aI45
aI86
aI79
aI87
aI114
aI68
aI232
aI62
aI88
aI6
aI53
aI52
aI101
aI113
aI199
aI55
aI255
aI128
aI43
aI12
aI71
aI44
aI170
aI16
aI180
aI109
aI27
aI86
aI22
aI64
aI166
aI256
aI143
aI40
aI132
aI137
aI224
aI50
aI52
aI82
aI32
aI28
aI75
aI47
aI103
aI28
aI117
aI87
aI130
aI22
aI73
aI64
aI128
aI140
aI54
aI295
aI20
aI139
aI127
aI258
aI171
aI91
aI174
aI38
aI90
aI135
aI161
aI93
aI70
aI222
aI74
aI297
aI115
aI108
aI55
aI48
aI12
aI92
aI40
aI56
aI98
aI36
aI161
aI43
aI87
aI178
aI49
aI30
aI251
aI308
aI164
aI9
aI58
aI8
aI63
aI43
aI126
aI176
aI131
aI77
aI124
aI72
aI27
aI26
aI92
aI207
aI37
aI56
aI32
aI32
aI119
aI8
aI40
aI211
aI288
aI44
aI125
aI71
aI11
aI40
aI18
aI19
aI50
aI169
aI129
aI29
aI77
aI132
aI53
aI23
aI64
aI9
aI39
aI22
aI28
aI31
aI106
aI6
aI6
aI65
aI80
aI208
aI51
aI112
aI79
aI72
aI10
aI198
aI66
aI32
aI104
aI44
aI71
aI302
aI45
aI152
aI93
aI171
aI34
aI42
aI219
aI65
aI107
aI56
aI113
aI52
aI55
aI35
aI52
aI73
aI53
aI25
aI53
aI105
aI164
aI68
aI40
aI56
aI117
aI181
aI525
aI6
aI102
aI135
aI14
aI68
aI69
aI169
aI102
aI714
aI10
aI31
aI26
aI60
aI1700
aI96
aI80
aI68
aI78
aI27
aI38
aI51
aI28
aI83
aI14
aI9
aI190
aI90
aI10
aI27
aI117
aI174
aI93
aI240
aI12
aI82
aI51
aI32
aI101
aI92
aI215
aI198
aI65
aI400
aI34
aI29
aI145
aI42
aI194
aI107
aI216
aI51
aI107
aI204
aI77
aI102
aI74
aI38
aI131
aI128
aI41
aI75
aI23
aI109
aI221
aI90
aI7
aI19
aI40
aI99
aI182
aI95
aI110
aI66
aI31
aI170
aI121
aI22
aI40
aI11
aI30
aI39
aI60
aI42
aI6
aI45
aI98
aI96
aI63
aI29
aI51
aI86
aI58
aI136
aI100
aI23
aI35
aI185
aI26
aI8
aI84
aI96
aI22
aI11
aI191
aI50
aI95
aI122
aI134
aI100
aI39
aI21
aI167
aI164
aI80
aI20
aI122
aI52
aI41
aI118
aI52
aI101
aI33
aI137
aI30
aI210
aI97
aI278
aI92
aI104
aI32
aI82
aI107
aI13
aI21
aI234
aI165
aI154
aI31
aI92
aI230
aI64
aI164
aI10
aI25
aI189
aI85
aI99
aI9
aI30
aI103
aI54
aI21
aI381
aI225
aI117
aI148
aI84
aI205
aI79
aI271
aI27
aI26
aI101
aI96
aI84
aI119
aI53
aI39
aI29
aI284
aI119
aI29
aI46
aI127
aI8
aI62
aI57
aI206
aI101
aI43
aI111
aI36
aI46
aI515
aI43
aI43
aI119
aI156
aI14
aI97
aI90
aI47
aI89
aI57
aI72
aI172
aI239
aI69
aI35
aI41
aI52
aI171
aI134
aI51
aI89
aI71
aI77
aI72
aI8
aI38
aI121
aI231
aI65
aI64
aI88
aI21
aI183
aI60
aI139
aI118
aI177
aI61
aI126
aI58
aI60
aI71
aI122
aI85
aI142
aI409
aI57
aI158
aI122
aI190
aI159
aI12
aI16
aI109
aI10
aI21
aI196
aI21
aI77
aI76
aI6
aI57
aI144
aI252
aI51
aI52
aI16
aI96
aI121
aI54
aI220
aI307
aI105
aI76
aI148
aI104
aI12
aI6
aI81
aI170
aI29
aI73
aI105
aI93
aI8
aI127
aI55
aI104
aI17
aI61
aI93
aI73
aI83
aI118
aI20
aI30
aI58
aI97
aI133
aI51
aI121
aI20
aI10
aI17
aI65
aI222
aI49
aI150
aI58
aI160
aI361
aI10
aI43
aI85
aI107
aI60
aI50
aI92
aI106
aI54
aI66
aI32
aI34
aI91
aI180
aI199
aI6
aI79
aI93
aI37
aI220
aI32
aI160
aI117
aI57
aI87
aI8
aI78
aI120
aI132
aI247
aI181
aI75
aI107
aI156
aI51
aI103
aI58
aI23
aI6
aI44
aI29
aI28
aI51
aI100
aI37
aI29
aI68
aI257
aI21
aI78
aI62
aI71
aI61
aI85
aI17
aI15
aI176
aI72
aI109
aI54
aI68
aI179
aI72
aI104
aI134
aI75
aI40
aI99
aI61
aI99
aI89
aI8
aI128
aI80
aI88
aI179
aI46
aI66
aI129
aI164
aI59
aI63
aI31
aI97
aI19
aI31
aI64
aI16
aI82
aI41
aI42
aI8
aI103
aI84
aI85
aI65
aI54
aI28
aI102
aI24
aI124
aI72
aI12
aI16
aI187
aI102
aI232
aI16
aI51
aI119
aI28
aI58
aI216
aI73
aI34
aI136
aI46
aI87
aI152
aI93
aI44
aI141
aI94
aI9
aI107
aI47
aI54
aI76
aI48
aI18
aI142
aI127
aI69
aI49
aI107
aI137
aI297
aI137
aI67
aI120
aI63
aI138
aI12
aI31
aI15
aI12
aI18
aI40
aI100
aI227
aI16
aI79
aI86
aI22
aI113
aI87
aI57
aI19
aI47
aI22
aI56
aI205
aI70
aI140
aI187
aI38
aI90
aI6
aI14
aI152
aI180
aI32
aI37
aI183
aI151
aI149
aI36
aI12
aI115
aI44
aI53
aI31
aI89
aI8
aI31
aI72
aI415
aI87
aI18
aI36
aI132
aI29
aI33
aI92
aI39
aI143
aI45
aI295
aI173
aI40
aI99
aI920
aI143
aI93
aI228
aI137
aI9
aI106
aI64
aI40
aI41
aI180
aI282
aI107
aI84
aI231
aI20
aI184
aI131
aI16
aI34
aI254
aI23
aI62
aI52
aI48
aI86
aI43
aI70
aI52
aI249
aI130
aI200
aI69
aI158
aI128
aI72
aI99
aI66
aI239
aI59
aI88
aI6
aI145
aI62
aI151
aI88
aI32
aI71
aI111
aI41
aI144
aI21
aI25
aI135
aI11
aI339
aI166
aI17
aI6
aI43
aI65
aI30
aI6
aI153
aI99
aI232
aI131
aI81
aI145
aI81
aI36
aI60
aI30
aI41
aI102
aI112
aI209
aI32
aI57
aI596
aI247
aI63
aI225
aI50
aI71
aI28
aI35
aI166
aI36
aI69
aI23
aI97
aI147
aI54
aI39
aI166
aI43
aI9
aI87
aI159
aI102
aI125
aI219
aI52
aI75
aI55
aI155
aI145
aI60
aI46
aI39
aI108
aI126
aI41
aI18
aI44
aI119
aI157
aI26
aI71
aI97
aI26
aI126
aI197
aI151
aI498
aI38
aI24
aI86
aI22
aI114
aI84
aI189
aI225
aI11
aI221
aI87
aI62
aI25
aI18
aI127
aI63
aI27
aI22
aI10
aI56
aI24
aI159
aI34
aI62
aI15
aI165
aI221
aI53
aI21
aI22
aI48
aI111
aI142
aI31
aI115
aI186
aI47
aI106
aI54
aI106
aI35
aI155
aI15
aI130
aI29
aI71
aI86
aI245
aI174
aI126
aI40
aI37
aI123
aI27
aI54
aI197
aI122
aI29
aI133
aI145
aI208
aI67
aI86
aI84
aI51
aI58
aI90
aI31
aI63
aI63
aI81
aI36
aI54
aI87
aI182
aI6
aI54
aI29
aI74
aI91
aI121
aI119
aI8
aI108
aI21
aI347
aI89
aI116
aI167
aI88
aI121
aI63
aI27
aI107
aI19
aI50
aI84
aI99
aI83
aI105
aI47
aI72
aI199
aI154
aI61
aI62
aI66
aI26
aI189
aI30
aI24
aI59
aI141
aI37
aI20
aI70
aI148
aI53
aI90
aI247
aI26
aI58
aI102
aI125
aI37
aI151
aI133
aI51
aI214
aI8
aI27
aI112
aI21
aI43
aI111
aI98
aI61
aI75
aI21
aI127
aI225
aI101
aI71
aI78
aI95
aI99
aI6
aI217
aI200
aI150
aI48
aI62
aI16
aI263
aI127
aI28
aI33
aI93
aI85
aI71
aI200
aI99
aI95
aI71
aI107
aI81
aI88
aI45
aI22
aI171
aI123
aI61
aI16
aI57
aI56
aI11
aI59
aI438
aI23
aI43
aI8
aI135
aI90
aI104
aI200
aI74
aI6
aI28
aI28
aI68
aI9
aI46
aI40
aI63
aI189
aI8
aI30
aI158
aI43
aI107
aI11
aI23
aI157
aI122
aI135
aI143
aI42
aI109
aI146
aI17
aI132
aI10
aI141
aI78
aI14
aI72
aI150
aI20
aI408
aI69
aI294
aI84
aI47
aI224
aI11
aI81
aI8
aI292
aI234
aI38
aI52
aI79
aI48
aI166
aI47
aI101
aI27
aI114
aI63
aI98
aI96
aI140
aI48
aI184
aI71
aI74
aI86
aI60
aI98
aI180
aI147
aI16
aI118
aI46
aI6
aI61
aI56
aI7
aI38
aI27
aI236
aI118
aI49
aI67
aI470
aI158
aI60
aI51
aI144
aI165
aI65
aI25
aI293
aI143
aI233
aI106
aI98
aI135
aI29
aI103
aI23
aI135
aI6
aI194
aI11
aI84
aI8
aI124
aI63
aI40
aI91
aI16
aI14
aI26
aI31
aI135
aI141
aI45
aI79
aI107
aI25
aI18
aI55
aI103
aI135
aI109
aI22
aI78
aI54
aI245
aI36
aI274
aI136
aI249
aI84
aI83
aI15
aI91
aI9
aI51
aI169
aI25
aI116
aI123
aI41
aI94
aI120
aI41
aI140
aI136
aI144
aI84
aI89
aI50
aI64
aI73
aI69
aI135
aI12
aI116
aI167
aI97
aI64
aI90
aI163
aI273
aI90
aI86
aI18
aI107
aI83
aI56
aI6
aI12
aI72
aI74
aI46
aI59
aI47
aI149
aI124
aI175
aI23
aI115
aI43
aI137
aI110
aI79
aI29
aI22
aI106
aI74
aI9
aI25
aI51
aI95
aI44
aI115
aI102
aI33
aI243
aI167
aI103
aI9
aI269
aI8
aI6
aI106
aI71
aI12
aI94
aI118
aI96
aI75
aI120
aI50
aI55
aI69
aI16
aI125
aI20
aI90
aI27
aI134
aI139
aI60
aI6
aI104
aI46
aI65
aI73
aI40
aI108
aI440
aI23
aI169
aI31
aI60
aI107
aI16
aI16
aI68
aI164
aI18
aI83
aI89
aI89
aI42
aI133
aI70
aI100
aI52
aI131
aI79
aI147
aI268
aI17
aI120
aI64
aI161
aI183
aI136
aI81
aI98
aI125
aI17
aI90
aI144
aI103
aI189
aI32
aI159
aI102
aI119
aI406
aI278
aI125
aI96
aI50
aI112
aI94
aI267
aI239
aI59
aI85
aI149
aI49
aI189
aI68
aI25
aI76
aI197
aI147
aI12
aI134
aI82
aI91
aI50
aI338
aI111
aI55
aI30
aI26
aI73
aI77
aI29
aI114
aI147
aI183
aI223
aI54
aI158
aI29
aI76
aI75
aI38
aI91
aI177
aI171
aI66
aI77
aI40
aI213
aI55
aI7
aI39
aI252
aI39
aI114
aI100
aI76
aI78
aI12
aI257
aI122
aI9
aI25
aI16
aI33
aI79
aI11
aI141
aI104
aI90
aI81
aI104
aI49
aI14
aI167
aI10
aI102
aI103
aI179
aI74
aI81
aI105
aI69
aI10
aI111
aI177
aI17
aI107
aI10
aI39
aI127
aI76
aI120
aI233
aI224
aI72
aI89
aI68
aI166
aI153
aI37
aI155
aI10
aI16
aI67
aI84
aI137
aI17
aI84
aI243
aI109
aI195
aI72
aI247
aI221
aI33
aI33
aI139
aI23
aI100
aI73
aI134
aI34
aI14
aI7
aI31
aI60
aI6
aI56
aI71
aI84
aI48
aI41
aI46
aI21
aI105
aI99
aI71
aI87
aI41
aI86
aI393
aI12
aI36
aI109
aI34
aI87
aI55
aI359
aI177
aI39
aI207
aI235
aI32
aI109
aI71
aI53
aI114
aI169
aI295
aI142
aI134
aI17
aI175
aI91
aI22
aI140
aI131
aI107
aI21
aI44
aI81
aI185
aI85
aI160
aI167
aI79
aI83
aI38
aI249
aI494
aI187
aI6
aI46
aI182
aI270
aI54
aI63
aI53
aI35
aI43
aI31
aI77
aI21
aI200
aI248
aI119
aI211
aI89
aI49
aI239
aI136
aI33
aI39
aI135
aI41
aI8
aI113
aI145
aI13
aI34
aI219
aI187
aI93
aI75
aI184
aI72
aI65
aI43
aI91
aI118
aI217
aI85
aI93
aI71
aI18
aI10
aI143
aI321
aI137
aI47
aI141
aI25
aI119
aI75
aI249
aI81
aI67
aI83
aI164
aI66
aI140
aI70
aI106
aI253
aI25
aI54
aI13
aI18
aI140
aI139
aI55
aI79
aI52
aI54
aI132
aI10
aI112
aI60
aI56
aI148
aI32
aI20
aI60
aI159
aI111
aI105
aI47
aI145
aI81
aI46
aI29
aI34
aI133
aI107
aI87
aI142
aI149
aI141
aI154
aI171
aI73
aI18
aI134
aI68
aI371
aI6
aI24
aI79
aI12
aI18
aI39
aI13
aI221
aI22
aI52
aI90
aI255
aI18
aI108
aI8
aI152
aI153
aI16
aI91
aI70
aI192
aI161
aI62
aI90
aI108
aI32
aI215
aI40
aI27
aI54
aI123
aI163
aI8
aI108
aI42
aI129
aI18
aI35
aI64
aI108
aI79
aI130
aI43
aI118
aI21
aI39
aI140
aI21
aI137
aI25
aI113
aI20
aI33
aI146
aI26
aI139
aI75
aI16
aI83
aI31
aI102
aI31
aI32
aI71
aI43
aI152
aI144
aI165
aI11
aI95
aI262
aI66
aI120
aI133
aI29
aI88
aI8
aI72
aI85
aI131
aI80
aI104
aI119
aI26
aI323
aI146
aI189
aI113
aI95
aI79
aI29
aI106
aI185
aI46
aI33
aI85
aI265
aI11
aI17
aI15
aI19
aI83
aI21
aI115
aI172
aI135
aI52
aI199
aI179
aI19
aI138
aI56
aI62
aI21
aI73
aI111
aI91
aI142
aI108
aI59
aI35
aI74
aI242
aI100
aI136
aI21
aI30
aI80
aI31
aI75
aI58
aI30
aI140
aI6
aI141
aI61
aI92
aI172
aI98
aI89
aI60
aI72
aI102
aI18
aI74
aI140
aI46
aI8
aI184
aI118
aI31
aI26
aI11
aI91
aI78
aI62
aI78
aI75
aI59
aI23
aI30
aI64
aI21
aI67
aI70
aI38
aI54
aI112
aI116
aI37
aI39
aI21
aI182
aI88
aI58
aI184
aI12
aI77
aI55
aI115
aI51
aI141
aI185
aI77
aI38
aI101
aI16
aI11
aI114
aI10
aI58
aI11
aI112
aI117
aI483
aI39
aI65
aI22
aI247
aI67
aI54
aI70
aI141
aI60
aI11
aI186
aI288
aI85
aI105
aI20
aI361
aI86
aI188
aI42
aI230
aI294
aI61
aI27
aI153
aI82
aI190
aI226
aI22
aI251
aI44
aI284
aI23
aI267
aI66
aI159
aI47
aI110
aI8
aI18
aI8
aI155
aI32
aI98
aI315
aI17
aI163
aI18
aI92
aI98
aI133
aI84
aI116
aI227
aI12
aI80
aI13
aI103
aI28
aI84
aI34
aI24
aI10
aI18
aI40
aI26
aI110
aI91
aI24
aI31
aI7
aI125
aI32
aI190
aI42
aI82
aI46
aI37
aI44
aI96
aI25
aI164
aI22
aI85
aI25
aI173
aI76
aI77
aI106
aI298
aI39
aI183
aI55
aI167
aI39
aI18
aI168
aI44
aI80
aI28
aI92
aI16
aI20
aI139
aI64
aI21
aI87
aI43
aI47
aI70
aI19
aI183
aI177
aI67
aI62
aI52
aI95
aI63
aI242
aI104
aI158
aI169
aI51
aI308
aI33
aI101
aI80
aI37
aI100
aI39
aI16
aI10
aI34
aI59
aI63
aI65
aI57
aI60
aI68
aI81
aI53
aI85
aI232
aI113
aI18
aI33
aI141
aI97
aI6
aI13
aI142
aI30
aI89
aI6
aI134
aI125
aI88
aI116
aI120
aI112
aI6
aI41
aI55
aI57
aI131
aI165
aI167
aI77
aI132
aI105
aI12
aI46
aI161
aI69
aI322
aI89
aI36
aI29
aI386
aI89
aI159
aI149
aI75
aI57
aI65
aI76
aI250
aI134
aI57
aI155
aI95
aI31
aI15
aI86
aI95
aI6
aI178
aI34
aI50
aI130
aI55
aI113
aI66
aI35
aI18
aI129
aI6
aI77
aI61
aI68
aI69
aI163
aI172
aI27
aI36
aI85
aI100
aI75
aI70
aI22
aI159
aI12
aI157
aI46
aI92
aI110
aI88
aI67
aI139
aI80
aI207
aI61
aI185
aI83
aI116
aI115
aI79
aI30
aI68
aI96
aI66
aI33
aI34
aI109
aI17
aI10
aI65
aI139
aI83
aI131
aI231
aI59
aI36
aI55
aI7
aI36
aI133
aI45
aI87
aI60
aI168
aI96
aI67
aI115
aI23
aI87
aI152
aI93
aI106
aI144
aI58
aI30
aI45
aI10
aI201
aI71
aI15
aI195
aI28
aI33
aI141
aI34
aI36
aI11
aI47
aI223
aI34
aI74
aI20
aI165
aI78
aI145
aI115
aI39
aI34
aI48
aI48
aI168
aI23
aI109
aI179
aI105
aI10
aI33
aI97
aI76
aI12
aI25
aI81
aI14
aI29
aI63
aI43
aI181
aI70
aI189
aI34
aI27
aI26
aI55
aI89
aI91
aI173
aI136
aI49
aI42
aI102
aI107
aI43
aI68
aI6
aI89
aI153
aI16
aI18
aI12
aI10
aI185
aI8
aI43
aI124
aI22
aI52
aI165
aI88
aI18
aI115
aI31
aI52
aI24
aI101
aI31
aI14
aI24
aI156
aI64
aI73
aI38
aI12
aI125
aI227
aI54
aI24
aI257
aI46
aI38
aI177
aI33
aI71
aI88
aI94
aI81
aI29
aI111
aI35
aI24
aI153
aI116
aI91
aI43
aI137
aI23
aI104
aI44
aI122
aI292
aI91
aI55
aI24
aI58
aI23
aI55
aI12
aI20
aI143
aI28
aI39
aI318
aI136
aI43
aI110
aI55
aI21
aI6
aI6
aI170
aI118
aI81
aI65
aI96
aI134
aI75
aI63
aI59
aI6
aI65
aI58
aI58
aI42
aI48
aI130
aI25
aI76
aI15
aI76
aI39
aI29
aI78
aI116
aI96
aI40
aI6
aI147
aI6
aI102
aI6
aI62
aI72
aI214
aI124
aI14
aI136
aI24
aI106
aI6
aI6
aI6
aI75
aI75
aI170
aI25
aI131
aI6
aI13
aI37
aI27
aI142
aI284
aI31
aI194
aI40
aI93
aI10
aI216
aI18
aI292
aI169
aI95
aI142
aI21
aI95
aI151
aI15
aI28
aI16
aI82
aI67
aI82
aI107
aI48
aI14
aI76
aI71
aI68
aI25
aI13
aI65
aI112
aI6
aI53
aI6
aI238
aI114
aI44
aI19
aI51
aI59
aI208
aI275
aI45
aI161
aI220
aI47
aI93
aI170
aI66
aI50
aI45
aI87
aI74
aI101
aI124
aI74
aI61
aI70
aI103
aI10
aI62
aI32
aI23
aI65
aI178
aI130
aI81
aI211
aI34
aI16
aI74
aI47
aI43
aI150
aI10
aI62
aI104
aI116
aI32
aI20
aI14
aI44
aI611
aI46
aI52
aI112
aI115
aI10
aI85
aI55
aI19
aI9
aI128
aI85
aI123
aI38
aI26
aI59
aI45
aI46
aI28
aI73
aI36
aI84
aI171
aI178
aI36
aI51
aI75
aI26
aI65
aI65
aI135
aI68
aI73
aI54
aI41
aI99
aI26
aI61
aI40
aI171
aI89
aI49
aI63
aI19
aI60
aI22
aI69
aI22
aI10
aI153
aI81
aI132
aI235
aI66
aI53
aI30
aI6
aI49
aI66
aI8
aI6
aI17
aI112
aI110
aI32
aI37
aI26
aI34
aI19
aI31
aI73
aI124
aI39
aI160
aI63
aI67
aI78
aI67
aI27
aI35
aI160
aI32
aI25
aI18
aI95
aI96
aI60
aI87
aI11
aI84
aI17
aI25
aI109
aI85
aI162
aI347
aI48
aI124
aI82
aI121
aI28
aI42
aI141
aI39
aI128
aI40
aI58
aI6
aI11
aI113
aI98
aI33
aI275
aI29
aI113
aI205
aI65
aI17
aI110
aI28
aI15
aI59
aI6
aI138
aI61
aI119
aI229
aI540
aI44
aI52
aI148
aI44
aI14
aI69
aI106
aI73
aI130
aI78
aI29
aI8
aI158
aI43
aI60
aI54
aI30
aI28
aI200
aI25
aI135
aI61
aI58
aI159
aI75
aI26
aI30
aI133
aI159
aI46
aI159
aI54
aI125
aI46
aI8
aI51
aI27
aI26
aI33
aI134
aI264
aI21
aI71
aI22
aI177
aI326
aI22
aI121
aI83
aI10
aI89
aI83
aI101
aI119
aI144
aI56
aI40
aI152
aI31
aI825
aI96
aI109
aI148
aI6
aI324
aI143
aI70
aI90
aI93
aI26
aI159
aI155
aI27
aI28
aI61
aI99
aI118
aI16
aI129
aI31
aI42
aI357
aI38
aI17
aI156
aI57
aI71
aI13
aI70
aI12
aI197
aI56
aI78
aI162
aI129
aI167
aI67
aI83
aI90
aI74
aI14
aI41
aI29
aI45
aI99
aI99
aI78
aI40
aI24
aI250
aI29
aI25
aI80
aI21
aI32
aI190
aI68
aI61
aI12
aI20
aI86
aI53
aI99
aI24
aI201
aI88
aI38
aI52
aI18
aI172
aI83
aI77
aI13
aI92
aI63
aI24
aI122
aI84
aI64
aI8
aI170
aI485
aI67
aI14
aI15
aI286
aI168
aI89
aI26
aI91
aI47
aI68
aI7
aI10
aI121
aI19
aI97
aI11
aI45
aI123
aI118
aI89
aI62
aI21
aI143
aI22
aI87
aI72
aI118
aI217
aI183
aI49
aI163
aI33
aI99
aI17
aI43
aI158
aI68
aI258
aI156
aI56
aI221
aI72
aI23
aI79
aI186
aI141
aI45
aI30
aI97
aI77
aI58
aI100
aI36
aI81
aI135
aI18
aI151
aI132
aI27
aI108
aI80
aI64
aI41
aI157
aI142
aI40
aI103
aI216
aI164
aI30
aI91
aI154
aI30
aI89
aI40
aI143
aI60
aI176
aI74
aI305
aI147
aI57
aI19
aI44
aI62
aI41
aI118
aI79
aI99
aI63
aI87
aI16
aI32
aI166
aI21
aI90
aI18
aI84
aI1787
aI54
aI36
aI113
aI228
aI35
aI80
aI30
aI26
aI29
aI109
aI118
aI211
aI74
aI112
aI56
aI60
aI324
aI89
aI111
aI126
aI11
aI59
aI54
aI20
aI205
aI155
aI31
aI46
aI30
aI78
aI126
aI38
aI26
aI76
aI30
aI191
aI18
aI72
aI26
aI56
aI144
aI67
aI47
aI13
aI18
aI150
aI149
aI590
aI145
aI123
aI101
aI296
aI25
aI96
aI192
aI41
aI58
aI88
aI25
aI60
aI214
aI94
aI85
aI25
aI458
aI113
aI36
aI117
aI44
aI36
aI123
aI88
aI20
aI174
aI143
aI35
aI6
aI42
aI65
aI81
aI174
aI99
aI11
aI111
aI206
aI21
aI109
aI68
aI132
aI37
aI46
aI18
aI296
aI150
aI69
aI112
aI45
aI13
aI121
aI75
aI88
aI15
aI147
aI115
aI21
aI90
aI89
aI170
aI6
aI8
aI80
aI44
aI67
aI15
aI18
aI19
aI32
aI233
aI20
aI69
aI52
aI119
aI17
aI66
aI36
aI103
aI44
aI79
aI42
aI29
aI121
aI136
aI82
aI12
aI107
aI261
aI28
aI6
aI61
aI26
aI39
aI104
aI91
aI97
aI100
aI16
aI47
aI285
aI31
aI6
aI26
aI56
aI126
aI60
aI53
aI14
aI63
aI53
aI20
aI15
aI34
aI19
aI56
aI175
aI67
aI39
aI31
aI120
aI48
aI89
aI6
aI9
aI56
aI215
aI45
aI57
aI67
aI71
aI26
aI27
aI36
aI33
aI39
aI55
aI122
aI38
aI67
aI45
aI49
aI159
aI39
aI43
aI65
aI25
aI44
aI206
aI104
aI113
aI88
aI75
aI119
aI79
aI258
aI16
aI242
aI99
aI14
aI40
aI23
aI136
aI32
aI51
aI170
aI27
aI59
aI79
aI29
aI98
aI242
aI92
aI20
aI22
aI74
aI68
aI40
aI71
aI122
aI167
aI131
aI170
aI58
aI94
aI56
aI89
aI48
aI130
aI6
aI78
aI112
aI35
aI217
aI200
aI65
aI64
aI27
aI97
aI69
aI18
aI51
aI36
aI13
aI55
aI20
aI78
aI57
aI45
aI16
aI97
aI20
aI85
aI32
aI6
aI11
aI63
aI46
aI21
aI19
aI18
aI43
aI20
aI76
aI153
aI191
aI28
aI102
aI53
aI82
aI23
aI145
aI34
aI19
aI83
aI301
aI181
aI129
aI12
aI73
aI89
aI18
aI34
aI129
aI55
aI27
aI48
aI38
aI34
aI91
aI23
aI80
aI17
aI490
aI87
aI137
aI88
aI113
aI117
aI214
aI36
aI23
aI64
aI118
aI79
aI162
aI48
aI70
aI65
aI54
aI18
aI32
aI23
aI174
aI46
aI35
aI167
aI171
aI66
aI14
aI52
aI99
aI159
aI184
aI49
aI117
aI72
aI120
aI165
aI111
aI148
aI107
aI108
aI16
aI84
aI92
aI24
aI167
aI30
aI155
aI34
aI69
aI28
aI55
aI10
aI122
aI90
aI38
aI131
aI40
aI94
aI8
aI184
aI213
aI25
aI50
aI59
aI21
aI45
aI131
aI31
aI153
aI13
aI36
aI28
aI12
aI60
aI22
aI147
aI32
aI15
aI28
aI26
aI143
aI78
aI45
aI90
aI45
aI182
aI6
aI257
aI74
aI37
aI24
aI33
aI198
aI24
aI6
aI25
aI79
aI43
aI20
aI16
aI38
aI18
aI98
aI76
aI77
aI372
aI127
aI75
aI80
aI292
aI72
aI17
aI201
aI89
aI19
aI147
aI76
aI101
aI250
aI116
aI13
aI71
aI37
aI143
aI156
aI251
aI90
aI61
aI83
aI166
aI20
aI180
aI20
aI33
aI67
aI148
aI11
aI8
aI47
aI21
aI83
aI108
aI67
aI28
aI129
aI90
aI70
aI38
aI37
aI100
aI133
aI58
aI101
aI212
aI89
aI82
aI16
aI54
aI25
aI93
aI148
aI32
aI22
aI112
aI71
aI88
aI104
aI114
aI36
aI116
aI87
aI77
aI76
aI118
aI37
aI20
aI29
aI114
aI133
aI33
aI144
aI47
aI23
aI93
aI35
aI156
aI75
aI27
aI39
aI14
aI107
aI37
aI185
aI59
aI15
aI79
aI95
aI64
aI115
aI128
aI122
aI37
aI31
aI122
aI50
aI22
aI54
aI30
aI40
aI35
aI18
aI114
aI15
aI18
aI67
aI98
aI14
aI112
aI35
aI26
aI51
aI235
aI121
aI37
aI12
aI188
aI43
aI67
aI152
aI30
aI64
aI8
aI93
aI43
aI305
aI9
aI33
aI124
aI33
aI16
aI39
aI15
aI54
aI41
aI120
aI45
aI14
aI127
aI61
aI40
aI95
aI54
aI275
aI152
aI23
aI53
aI101
aI12
aI25
aI48
aI44
aI188
aI134
aI9
aI159
aI71
aI21
aI122
aI86
aI10
aI31
aI6
aI10
aI121
aI115
aI204
aI135
aI14
aI56
aI140
aI135
aI16
aI142
aI22
aI84
aI16
aI37
aI16
aI18
aI101
aI13
aI44
aI107
aI18
aI102
aI217
aI13
aI23
aI297
aI17
aI105
aI13
aI20
aI120
aI31
aI127
aI6
aI21
aI19
aI20
aI65
aI45
aI35
aI60
aI37
aI58
aI293
aI78
aI13
aI84
aI80
aI590
aI89
aI44
aI88
aI8
aI51
aI185
aI19
aI89
aI25
aI20
aI71
aI32
aI53
aI138
aI71
aI78
aI26
aI103
aI26
aI110
aI14
aI120
aI138
aI45
aI31
aI197
aI84
aI81
aI117
aI55
aI150
aI22
aI51
aI126
aI41
aI176
aI101
aI66
aI13
aI93
aI39
aI81
aI67
aI79
aI107
aI168
aI150
aI74
aI75
aI12
aI48
aI39
aI70
aI10
aI91
aI28
aI23
aI179
aI6
aI6
aI27
aI137
aI82
aI59
aI65
aI87
aI108
aI84
aI143
aI58
aI78
aI119
aI68
aI124
aI10
aI67
aI53
aI163
aI54
aI72
aI11
aI6
aI99
aI69
aI116
aI30
aI90
aI115
aI40
aI62
aI90
aI90
aI153
aI19
aI69
aI73
aI51
aI6
aI301
aI46
aI83
aI17
aI296
aI10
aI6
aI183
aI59
aI89
aI9
aI151
aI6
aI145
aI91
aI76
aI20
aI24
aI70
aI62
aI73
aI91
aI20
aI92
aI75
aI6
aI6
aI96
aI65
aI29
aI86
aI78
aI24
aI151
aI72
aI8
aI265
aI6
aI193
aI32
aI107
aI56
aI117
aI163
aI103
aI6
aI102
aI7
aI79
aI119
aI258
aI86
aI93
aI62
aI113
aI99
aI232
aI37
aI162
aI84
aI151
aI192
aI53
aI190
aI12
aI49
aI33
aI134
aI30
aI182
aI71
aI62
aI63
aI54
aI162
aI309
aI42
aI22
aI112
aI47
aI103
aI86
aI32
aI105
aI104
aI37
aI40
aI69
aI25
aI25
aI198
aI48
aI53
aI88
aI97
aI148
aI39
aI100
aI31
aI38
aI194
aI37
aI62
aI53
aI62
aI163
aI81
aI1744
aI30
aI24
aI6
aI161
aI84
aI17
aI214
aI142
aI90
aI66
aI50
aI6
aI91
aI65
aI138
aI61
aI39
aI35
aI92
aI94
aI53
aI118
aI41
aI6
aI311
aI108
aI99
aI105
aI84
aI110
aI46
aI38
aI22
aI33
aI256
aI21
aI183
aI40
aI79
aI127
aI147
aI103
aI1424
aI10
aI67
aI112
aI14
aI118
aI130
aI126
aI70
aI50
aI36
aI183
aI25
aI73
aI39
aI63
aI205
aI126
aI89
aI26
aI34
aI12
aI40
aI124
aI56
aI82
aI12
aI103
aI29
aI21
aI54
aI292
aI123
aI50
aI25
aI122
aI64
aI129
aI95
aI150
aI13
aI13
aI77
aI13
aI89
aI69
aI17
aI29
aI28
aI29
aI30
aI60
aI68
aI12
aI18
aI129
aI62
aI155
aI47
aI228
aI244
aI113
aI24
aI136
aI12
aI195
aI37
aI94
aI9
aI122
aI201
aI90
aI42
aI184
aI20
aI26
aI187
aI50
aI95
aI18
aI39
aI131
aI78
aI192
aI60
aI8
aI75
aI162
aI19
aI67
aI42
aI10
aI50
aI55
aI23
aI86
aI107
aI19
aI138
aI212
aI100
aI131
aI17
aI37
aI31
aI225
aI48
aI60
aI23
aI230
aI49
aI72
aI107
aI34
aI47
aI83
aI137
aI13
aI51
aI76
aI75
aI116
aI96
aI75
aI34
aI138
aI79
aI29
aI126
aI38
aI89
aI26
aI150
aI64
aI10
aI54
aI145
aI75
aI178
aI91
aI47
aI55
aI6
aI184
aI76
aI58
aI74
aI127
aI47
aI72
aI119
aI18
aI144
aI28
aI11
aI15
aI127
aI83
aI6
aI276
aI169
aI77
aI112
aI158
aI78
aI45
aI125
aI65
aI40
aI127
aI40
aI35
aI56
aI203
aI42
aI72
aI10
aI29
aI49
aI59
aI21
aI1501
aI100
aI47
aI87
aI13
aI79
aI212
aI165
aI61
aI252
aI154
aI53
aI33
aI103
aI57
aI93
aI28
aI24
aI41
aI47
aI121
aI492
aI64
aI8
aI46
aI18
aI90
aI142
aI19
aI86
aI68
aI74
aI6
aI43
aI191
aI11
aI111
aI110
aI36
aI127
aI33
aI72
aI83
aI120
aI50
aI21
aI26
aI156
aI140
aI69
aI70
aI50
aI307
aI145
aI26
aI81
aI260
aI156
aI37
aI52
aI63
aI110
aI79
aI197
aI41
aI90
aI86
aI97
aI76
aI125
aI77
aI132
aI11
aI294
aI7
aI56
aI410
aI91
aI87
aI38
aI37
aI34
aI69
aI97
aI85
aI54
aI226
aI487
aI84
aI25
aI39
aI78
aI95
aI289
aI67
aI69
aI36
aI29
aI19
aI184
aI70
aI97
aI64
aI141
aI97
aI33
aI37
aI35
aI29
aI23
aI68
aI83
aI41
aI27
aI108
aI109
aI134
aI63
aI14
aI317
aI13
aI55
aI56
aI12
aI86
aI85
aI42
aI106
aI24
aI127
aI20
aI23
aI199
aI34
aI40
aI22
aI49
aI57
aI172
aI115
aI241
aI90
aI206
aI166
aI21
aI222
aI77
aI80
aI122
aI432
aI16
aI78
aI8
aI262
aI56
aI47
aI66
aI8
aI24
aI119
aI42
aI26
aI66
aI291
aI15
aI347
aI132
aI30
aI152
aI107
aI46
aI50
aI51
aI9
aI268
aI47
aI40
aI254
aI88
aI51
aI92
aI47
aI23
aI208
aI84
aI15
aI71
aI111
aI96
aI24
aI114
aI7
aI263
aI40
aI47
aI46
aI221
aI93
aI121
aI125
aI34
aI176
aI156
aI12
aI13
aI287
aI36
aI165
aI73
aI81
aI144
aI155
aI48
aI111
aI257
aI33
aI179
aI35
aI44
aI198
aI8
aI54
aI54
aI209
aI18
aI212
aI93
aI62
aI149
aI10
aI212
aI71
aI59
aI47
aI23
aI27
aI14
aI119
aI128
aI109
aI194
aI121
aI41
aI38
aI683
aI107
aI54
aI140
aI30
aI73
aI19
aI49
aI17
aI34
aI81
aI51
aI244
aI63
aI182
aI214
aI167
aI21
aI306
aI94
aI50
aI8
aI56
aI114
aI55
aI159
aI21
aI15
aI90
aI61
aI85
aI321
aI82
aI128
aI222
aI12
aI30
aI63
aI46
aI72
aI96
aI65
aI100
aI87
aI64
aI27
aI15
aI38
aI68
aI92
aI79
aI30
aI83
aI207
aI77
aI92
aI9
aI60
aI28
aI24
aI63
aI104
aI222
aI131
aI26
aI35
aI64
aI192
aI163
aI12
aI14
aI24
aI32
aI29
aI170
aI135
aI54
aI69
aI294
aI60
aI47
aI165
aI73
aI159
aI109
aI34
aI38
aI20
aI25
aI22
aI156
aI54
aI193
aI37
aI31
aI41
aI47
aI46
aI78
aI47
aI83
aI189
aI25
aI22
aI45
aI88
aI100
aI56
aI54
aI84
aI60
aI89
aI54
aI50
aI94
aI56
aI29
aI60
aI103
aI62
aI10
aI130
aI27
aI17
aI87
aI51
aI130
aI45
aI26
aI74
aI27
aI59
aI160
aI66
aI51
aI49
aI65
aI210
aI243
aI46
aI52
aI50
aI155
aI53
aI74
aI32
aI107
aI38
aI102
aI560
aI286
aI30
aI65
aI32
aI15
aI6
aI104
aI113
aI245
aI225
aI209
aI125
aI16
aI106
aI29
aI46
aI130
aI8
aI34
aI17
aI39
aI25
aI82
aI160
aI680
aI34
aI74
aI105
aI121
aI57
aI15
aI57
aI88
aI191
aI106
aI285
aI155
aI36
aI68
aI134
aI195
aI39
aI16
aI346
aI177
aI27
aI58
aI50
aI83
aI93
aI55
aI52
aI32
aI100
aI12
aI97
aI16
aI62
aI12
aI218
aI114
aI73
aI44
aI210
aI135
aI142
aI73
aI132
aI68
aI95
aI20
aI80
aI93
aI153
aI127
aI184
aI36
aI24
aI79
aI89
aI232
aI31
aI261
aI31
aI90
aI54
aI55
aI174
aI45
aI53
aI106
aI119
aI40
aI138
aI84
aI132
aI43
aI103
aI89
aI230
aI39
aI84
aI118
aI91
aI65
aI78
aI71
aI83
aI71
aI57
aI82
aI431
aI31
aI32
aI6
aI106
aI96
aI91
aI154
aI8
aI189
aI20
aI10
aI83
aI98
aI79
aI21
aI132
aI93
aI103
aI13
aI102
aI33
aI67
aI123
aI276
aI124
aI61
aI55
aI74
aI148
aI96
aI57
aI82
aI61
aI113
aI104
aI102
aI49
aI74
aI62
aI177
aI332
aI43
aI83
aI100
aI35
aI61
aI76
aI217
aI64
aI93
aI63
aI80
aI46
aI38
aI54
aI10
aI263
aI182
aI104
aI71
aI72
aI276
aI35
aI104
aI198
aI32
aI700
aI83
aI61
aI32
aI145
aI49
aI80
aI413
aI17
aI72
aI288
aI128
aI18
aI145
aI207
aI89
aI106
aI172
aI190
aI103
aI69
aI46
aI98
aI128
aI18
aI210
aI15
aI34
aI34
aI55
aI90
aI53
aI117
aI38
aI82
aI14
aI84
aI13
aI6
aI140
aI89
aI14
aI121
aI114
aI142
aI31
aI63
aI213
aI89
aI106
aI103
aI21
aI264
aI14
aI28
aI171
aI6
aI175
aI6
aI28
aI37
aI67
aI56
aI22
aI84
aI78
aI67
aI8
aI116
aI37
aI103
aI188
aI37
aI41
aI182
aI143
aI18
aI141
aI179
aI32
aI45
aI6
aI78
aI80
aI144
aI108
aI43
aI51
aI27
aI80
aI80
aI103
aI138
aI61
aI12
aI95
aI60
aI106
aI92
aI22
aI238
aI34
aI311
aI97
aI53
aI78
aI123
aI821
aI182
aI17
aI106
aI26
aI267
aI32
aI24
aI23
aI21
aI763
aI39
aI35
aI270
aI113
aI200
aI91
aI149
aI154
aI153
aI54
aI6
aI73
aI115
aI51
aI56
aI38
aI8
aI48
aI74
aI186
aI24
aI150
aI40
aI16
aI43
aI107
aI114
aI25
aI127
aI90
aI17
aI57
aI50
aI59
aI171
aI54
aI351
aI59
aI19
aI28
aI105
aI47
aI31
aI107
aI174
aI118
aI47
aI61
aI122
aI118
aI93
aI10
aI13
aI186
aI171
aI41
aI203
aI33
aI47
aI274
aI222
aI70
aI49
aI86
aI74
aI131
aI49
aI23
aI36
aI178
aI25
aI114
aI89
aI6
aI129
aI14
aI174
aI148
aI100
aI30
aI102
aI154
aI86
aI56
aI56
aI192
aI6
aI163
aI40
aI160
aI21
aI81
aI155
aI71
aI32
aI63
aI172
aI83
aI68
aI75
aI67
aI125
aI51
aI94
aI115
aI42
aI85
aI98
aI52
aI195
aI46
aI91
aI114
aI175
aI24
aI24
aI153
aI67
aI97
aI77
aI106
aI21
aI46
aI217
aI38
aI41
aI117
aI174
aI31
aI80
aI28
aI63
aI185
aI36
aI18
aI6
aI129
aI190
aI123
aI12
aI37
aI57
aI33
aI79
aI87
aI28
aI46
aI6
aI175
aI44
aI33
aI160
aI325
aI108
aI51
aI21
aI253
aI20
aI76
aI528
aI201
aI91
aI106
aI162
aI29
aI59
aI33
aI79
aI48
aI91
aI51
aI127
aI92
aI79
aI23
aI103
aI23
aI21
aI219
aI53
aI10
aI62
aI36
aI183
aI50
aI181
aI40
aI34
aI145
aI18
aI36
aI58
aI82
aI101
aI215
aI64
aI33
aI39
aI109
aI94
aI44
aI169
aI88
aI162
aI69
aI153
aI15
aI122
aI48
aI79
aI209
aI184
aI114
aI43
aI235
aI32
aI18
aI108
aI40
aI53
aI52
aI54
aI145
aI159
aI91
aI145
aI106
aI131
aI151
aI75
aI40
aI196
aI68
aI29
aI22
aI121
aI65
aI90
aI40
aI18
aI56
aI53
aI76
aI50
aI160
aI54
aI29
aI196
aI67
aI26
aI33
aI61
aI155
aI39
aI47
aI111
aI144
aI14
aI22
aI250
aI176
aI260
aI6
aI79
aI22
aI12
aI66
aI150
aI69
aI19
aI88
aI170
aI40
aI58
aI53
aI67
aI19
aI75
aI32
aI53
aI65
aI29
aI54
aI279
aI173
aI89
aI94
aI87
aI78
aI140
aI84
aI13
aI20
aI125
aI39
aI22
aI28
aI76
aI49
aI6
aI96
aI156
aI79
aI112
aI224
aI153
aI87
aI25
aI114
aI80
aI195
aI189
aI18
aI35
aI54
aI37
aI45
aI125
aI101
aI74
aI29
aI16
aI30
aI41
aI36
aI197
aI67
aI119
aI86
aI115
aI54
aI89
aI57
aI160
aI25
aI91
aI52
aI101
aI87
aI45
aI56
aI77
aI91
aI232
aI37
aI51
aI202
aI44
aI103
aI27
aI17
aI20
aI71
aI41
aI87
aI54
aI138
aI277
aI75
aI104
aI87
aI572
aI52
aI87
aI160
aI68
aI87
aI68
aI29
aI47
aI128
aI49
aI41
aI211
aI91
aI39
aI19
aI93
aI40
aI50
aI108
aI247
aI37
aI109
aI243
aI84
aI110
aI63
aI32
aI105
aI34
aI85
aI77
aI46
aI107
aI87
aI50
aI262
aI109
aI144
aI192
aI104
aI72
aI29
a.